
/Users/ohmpanchal/HackED Beta/NatHacks2024_C/slave_mem_i2c/build/slave_mem_i2c.elf:     file format elf32-littlearm

Sections:
Idx Name          Size      VMA       LMA       File off  Algn
  0 .boot2        00000100  10000000  10000000  00001000  2**0
                  CONTENTS, ALLOC, LOAD, READONLY, CODE
  1 .text         00001d58  10000100  10000100  00001100  2**3
                  CONTENTS, ALLOC, LOAD, READONLY, CODE
  2 .rodata       00000120  10001e58  10001e58  00002e58  2**2
                  CONTENTS, ALLOC, LOAD, READONLY, DATA
  3 .binary_info  00000024  10001f78  10001f78  00002f78  2**2
                  CONTENTS, ALLOC, LOAD, READONLY, DATA
  4 .ram_vector_table 000000c0  20000000  20000000  00004000  2**2
                  ALLOC
  5 .uninitialized_data 00000000  200000c0  200000c0  00003300  2**0
                  CONTENTS
  6 .data         00000240  200000c0  10001f9c  000030c0  2**4
                  CONTENTS, ALLOC, LOAD, READONLY, CODE
  7 .tdata        00000000  20000300  20000300  00003300  2**0
                  CONTENTS, ALLOC, LOAD, DATA, THREAD_LOCAL
  8 .tbss         00000000  20000300  20000300  00000000  2**0
                  ALLOC, THREAD_LOCAL
  9 .bss          0000040c  20000300  100021dc  00003300  2**3
                  ALLOC
 10 .heap         0003f8f4  2000070c  100021dc  0000370c  2**2
                  ALLOC, READONLY
 11 .scratch_x    00000000  20040000  20040000  00003300  2**0
                  CONTENTS
 12 .scratch_y    00000000  20041000  20041000  00003300  2**0
                  CONTENTS
 13 .stack_dummy  00000800  20041000  20041000  00003300  2**5
                  CONTENTS, READONLY
 14 .ARM.attributes 00000028  00000000  00000000  00003b00  2**0
                  CONTENTS, READONLY
 15 .comment      00000044  00000000  00000000  00003b28  2**0
                  CONTENTS, READONLY
 16 .debug_info   0001f942  00000000  00000000  00003b6c  2**0
                  CONTENTS, READONLY, DEBUGGING, OCTETS
 17 .debug_abbrev 00005c1e  00000000  00000000  000234ae  2**0
                  CONTENTS, READONLY, DEBUGGING, OCTETS
 18 .debug_loclists 000119cb  00000000  00000000  000290cc  2**0
                  CONTENTS, READONLY, DEBUGGING, OCTETS
 19 .debug_aranges 00000fe0  00000000  00000000  0003aa98  2**3
                  CONTENTS, READONLY, DEBUGGING, OCTETS
 20 .debug_rnglists 00002ecc  00000000  00000000  0003ba78  2**0
                  CONTENTS, READONLY, DEBUGGING, OCTETS
 21 .debug_line   00018e69  00000000  00000000  0003e944  2**0
                  CONTENTS, READONLY, DEBUGGING, OCTETS
 22 .debug_str    00004fe6  00000000  00000000  000577ad  2**0
                  CONTENTS, READONLY, DEBUGGING, OCTETS
 23 .debug_frame  00001e20  00000000  00000000  0005c794  2**2
                  CONTENTS, READONLY, DEBUGGING, OCTETS
 24 .debug_line_str 00000335  00000000  00000000  0005e5b4  2**0
                  CONTENTS, READONLY, DEBUGGING, OCTETS

/Users/ohmpanchal/HackED Beta/NatHacks2024_C/slave_mem_i2c/build/slave_mem_i2c.elf:     file format elf32-littlearm


Disassembly of section .boot2:

10000000 <__boot2_start__>:
10000000:	4b32b500 	.word	0x4b32b500
10000004:	60582021 	.word	0x60582021
10000008:	21026898 	.word	0x21026898
1000000c:	60984388 	.word	0x60984388
10000010:	611860d8 	.word	0x611860d8
10000014:	4b2e6158 	.word	0x4b2e6158
10000018:	60992100 	.word	0x60992100
1000001c:	61592102 	.word	0x61592102
10000020:	22f02101 	.word	0x22f02101
10000024:	492b5099 	.word	0x492b5099
10000028:	21016019 	.word	0x21016019
1000002c:	20356099 	.word	0x20356099
10000030:	f844f000 	.word	0xf844f000
10000034:	42902202 	.word	0x42902202
10000038:	2106d014 	.word	0x2106d014
1000003c:	f0006619 	.word	0xf0006619
10000040:	6e19f834 	.word	0x6e19f834
10000044:	66192101 	.word	0x66192101
10000048:	66182000 	.word	0x66182000
1000004c:	f000661a 	.word	0xf000661a
10000050:	6e19f82c 	.word	0x6e19f82c
10000054:	6e196e19 	.word	0x6e196e19
10000058:	f0002005 	.word	0xf0002005
1000005c:	2101f82f 	.word	0x2101f82f
10000060:	d1f94208 	.word	0xd1f94208
10000064:	60992100 	.word	0x60992100
10000068:	6019491b 	.word	0x6019491b
1000006c:	60592100 	.word	0x60592100
10000070:	481b491a 	.word	0x481b491a
10000074:	21016001 	.word	0x21016001
10000078:	21eb6099 	.word	0x21eb6099
1000007c:	21a06619 	.word	0x21a06619
10000080:	f0006619 	.word	0xf0006619
10000084:	2100f812 	.word	0x2100f812
10000088:	49166099 	.word	0x49166099
1000008c:	60014814 	.word	0x60014814
10000090:	60992101 	.word	0x60992101
10000094:	2800bc01 	.word	0x2800bc01
10000098:	4700d000 	.word	0x4700d000
1000009c:	49134812 	.word	0x49134812
100000a0:	c8036008 	.word	0xc8036008
100000a4:	8808f380 	.word	0x8808f380
100000a8:	b5034708 	.word	0xb5034708
100000ac:	20046a99 	.word	0x20046a99
100000b0:	d0fb4201 	.word	0xd0fb4201
100000b4:	42012001 	.word	0x42012001
100000b8:	bd03d1f8 	.word	0xbd03d1f8
100000bc:	6618b502 	.word	0x6618b502
100000c0:	f7ff6618 	.word	0xf7ff6618
100000c4:	6e18fff2 	.word	0x6e18fff2
100000c8:	bd026e18 	.word	0xbd026e18
100000cc:	40020000 	.word	0x40020000
100000d0:	18000000 	.word	0x18000000
100000d4:	00070000 	.word	0x00070000
100000d8:	005f0300 	.word	0x005f0300
100000dc:	00002221 	.word	0x00002221
100000e0:	180000f4 	.word	0x180000f4
100000e4:	a0002022 	.word	0xa0002022
100000e8:	10000100 	.word	0x10000100
100000ec:	e000ed08 	.word	0xe000ed08
	...
100000fc:	7a4eb274 	.word	0x7a4eb274

Disassembly of section .text:

10000100 <__VECTOR_TABLE>:
10000100:	20042000 	.word	0x20042000
10000104:	100001f7 	.word	0x100001f7
10000108:	100001c3 	.word	0x100001c3
1000010c:	100001c5 	.word	0x100001c5
10000110:	100001c1 	.word	0x100001c1
10000114:	100001c1 	.word	0x100001c1
10000118:	100001c1 	.word	0x100001c1
1000011c:	100001c1 	.word	0x100001c1
10000120:	100001c1 	.word	0x100001c1
10000124:	100001c1 	.word	0x100001c1
10000128:	100001c1 	.word	0x100001c1
1000012c:	100001c7 	.word	0x100001c7
10000130:	100001c1 	.word	0x100001c1
10000134:	100001c1 	.word	0x100001c1
10000138:	100001c9 	.word	0x100001c9
1000013c:	100001cb 	.word	0x100001cb
10000140:	100001cd 	.word	0x100001cd
10000144:	100001cd 	.word	0x100001cd
10000148:	100001cd 	.word	0x100001cd
1000014c:	100001cd 	.word	0x100001cd
10000150:	100001cd 	.word	0x100001cd
10000154:	100001cd 	.word	0x100001cd
10000158:	100001cd 	.word	0x100001cd
1000015c:	100001cd 	.word	0x100001cd
10000160:	100001cd 	.word	0x100001cd
10000164:	100001cd 	.word	0x100001cd
10000168:	100001cd 	.word	0x100001cd
1000016c:	100001cd 	.word	0x100001cd
10000170:	100001cd 	.word	0x100001cd
10000174:	100001cd 	.word	0x100001cd
10000178:	100001cd 	.word	0x100001cd
1000017c:	100001cd 	.word	0x100001cd
10000180:	100001cd 	.word	0x100001cd
10000184:	100001cd 	.word	0x100001cd
10000188:	100001cd 	.word	0x100001cd
1000018c:	100001cd 	.word	0x100001cd
10000190:	100001cd 	.word	0x100001cd
10000194:	100001cd 	.word	0x100001cd
10000198:	100001cd 	.word	0x100001cd
1000019c:	100001cd 	.word	0x100001cd
100001a0:	100001cd 	.word	0x100001cd
100001a4:	100001cd 	.word	0x100001cd
100001a8:	100001cd 	.word	0x100001cd
100001ac:	100001cd 	.word	0x100001cd
100001b0:	100001cd 	.word	0x100001cd
100001b4:	100001cd 	.word	0x100001cd
100001b8:	100001cd 	.word	0x100001cd
100001bc:	100001cd 	.word	0x100001cd

100001c0 <isr_invalid>:
100001c0:	be00      	bkpt	0x0000

100001c2 <isr_nmi>:
100001c2:	be00      	bkpt	0x0000

100001c4 <isr_hardfault>:
100001c4:	be00      	bkpt	0x0000

100001c6 <isr_svcall>:
100001c6:	be00      	bkpt	0x0000

100001c8 <isr_pendsv>:
100001c8:	be00      	bkpt	0x0000

100001ca <isr_systick>:
100001ca:	be00      	bkpt	0x0000

100001cc <__unhandled_user_irq>:
100001cc:	f3ef 8005 	mrs	r0, IPSR
100001d0:	3810      	subs	r0, #16

100001d2 <unhandled_user_irq_num_in_r0>:
100001d2:	be00      	bkpt	0x0000

100001d4 <binary_info_header>:
100001d4:	7188ebf2 	.word	0x7188ebf2
100001d8:	10001f78 	.word	0x10001f78
100001dc:	10001f9c 	.word	0x10001f9c
100001e0:	10000238 	.word	0x10000238
100001e4:	e71aa390 	.word	0xe71aa390

100001e8 <_entry_point>:
100001e8:	481e      	ldr	r0, [pc, #120]	@ (10000264 <data_cpy_table+0x2c>)

100001ea <_enter_vtable_in_r0>:
100001ea:	491f      	ldr	r1, [pc, #124]	@ (10000268 <data_cpy_table+0x30>)
100001ec:	6008      	str	r0, [r1, #0]
100001ee:	c806      	ldmia	r0!, {r1, r2}
100001f0:	f381 8808 	msr	MSP, r1
100001f4:	4710      	bx	r2

100001f6 <_reset_handler>:
100001f6:	481d      	ldr	r0, [pc, #116]	@ (1000026c <data_cpy_table+0x34>)
100001f8:	6800      	ldr	r0, [r0, #0]
100001fa:	2800      	cmp	r0, #0
100001fc:	d001      	beq.n	10000202 <hold_non_core0_in_bootrom+0x4>

100001fe <hold_non_core0_in_bootrom>:
100001fe:	4819      	ldr	r0, [pc, #100]	@ (10000264 <data_cpy_table+0x2c>)
10000200:	e7f3      	b.n	100001ea <_enter_vtable_in_r0>
10000202:	a40d      	add	r4, pc, #52	@ (adr r4, 10000238 <data_cpy_table>)
10000204:	cc0e      	ldmia	r4!, {r1, r2, r3}
10000206:	2900      	cmp	r1, #0
10000208:	d002      	beq.n	10000210 <hold_non_core0_in_bootrom+0x12>
1000020a:	f000 f812 	bl	10000232 <data_cpy>
1000020e:	e7f9      	b.n	10000204 <hold_non_core0_in_bootrom+0x6>
10000210:	4917      	ldr	r1, [pc, #92]	@ (10000270 <data_cpy_table+0x38>)
10000212:	4a18      	ldr	r2, [pc, #96]	@ (10000274 <data_cpy_table+0x3c>)
10000214:	2000      	movs	r0, #0
10000216:	e000      	b.n	1000021a <bss_fill_test>

10000218 <bss_fill_loop>:
10000218:	c101      	stmia	r1!, {r0}

1000021a <bss_fill_test>:
1000021a:	4291      	cmp	r1, r2
1000021c:	d1fc      	bne.n	10000218 <bss_fill_loop>

1000021e <platform_entry>:
1000021e:	4916      	ldr	r1, [pc, #88]	@ (10000278 <data_cpy_table+0x40>)
10000220:	4788      	blx	r1
10000222:	4916      	ldr	r1, [pc, #88]	@ (1000027c <data_cpy_table+0x44>)
10000224:	4788      	blx	r1
10000226:	4916      	ldr	r1, [pc, #88]	@ (10000280 <data_cpy_table+0x48>)
10000228:	4788      	blx	r1
1000022a:	be00      	bkpt	0x0000
1000022c:	e7fd      	b.n	1000022a <platform_entry+0xc>

1000022e <data_cpy_loop>:
1000022e:	c901      	ldmia	r1!, {r0}
10000230:	c201      	stmia	r2!, {r0}

10000232 <data_cpy>:
10000232:	429a      	cmp	r2, r3
10000234:	d3fb      	bcc.n	1000022e <data_cpy_loop>
10000236:	4770      	bx	lr

10000238 <data_cpy_table>:
10000238:	10001f9c 	.word	0x10001f9c
1000023c:	200000c0 	.word	0x200000c0
10000240:	20000300 	.word	0x20000300
10000244:	100021dc 	.word	0x100021dc
10000248:	20040000 	.word	0x20040000
1000024c:	20040000 	.word	0x20040000
10000250:	100021dc 	.word	0x100021dc
10000254:	20041000 	.word	0x20041000
10000258:	20041000 	.word	0x20041000
1000025c:	00000000 	.word	0x00000000
10000260:	4770      	bx	lr
10000262:	0000      	.short	0x0000
10000264:	00000000 	.word	0x00000000
10000268:	e000ed08 	.word	0xe000ed08
1000026c:	d0000000 	.word	0xd0000000
10000270:	20000300 	.word	0x20000300
10000274:	2000070c 	.word	0x2000070c
10000278:	100018b5 	.word	0x100018b5
1000027c:	1000031d 	.word	0x1000031d
10000280:	100018ad 	.word	0x100018ad

10000284 <_init>:
10000284:	b5f8      	push	{r3, r4, r5, r6, r7, lr}
10000286:	46c0      	nop			@ (mov r8, r8)

10000288 <register_tm_clones>:
10000288:	4806      	ldr	r0, [pc, #24]	@ (100002a4 <register_tm_clones+0x1c>)
1000028a:	4907      	ldr	r1, [pc, #28]	@ (100002a8 <register_tm_clones+0x20>)
1000028c:	1a09      	subs	r1, r1, r0
1000028e:	108b      	asrs	r3, r1, #2
10000290:	0fc9      	lsrs	r1, r1, #31
10000292:	18c9      	adds	r1, r1, r3
10000294:	b510      	push	{r4, lr}
10000296:	1049      	asrs	r1, r1, #1
10000298:	d003      	beq.n	100002a2 <register_tm_clones+0x1a>
1000029a:	4b04      	ldr	r3, [pc, #16]	@ (100002ac <register_tm_clones+0x24>)
1000029c:	2b00      	cmp	r3, #0
1000029e:	d000      	beq.n	100002a2 <register_tm_clones+0x1a>
100002a0:	4798      	blx	r3
100002a2:	bd10      	pop	{r4, pc}
100002a4:	20000300 	.word	0x20000300
100002a8:	20000300 	.word	0x20000300
100002ac:	00000000 	.word	0x00000000

100002b0 <frame_dummy>:
100002b0:	4b05      	ldr	r3, [pc, #20]	@ (100002c8 <frame_dummy+0x18>)
100002b2:	b510      	push	{r4, lr}
100002b4:	2b00      	cmp	r3, #0
100002b6:	d003      	beq.n	100002c0 <frame_dummy+0x10>
100002b8:	4904      	ldr	r1, [pc, #16]	@ (100002cc <frame_dummy+0x1c>)
100002ba:	4805      	ldr	r0, [pc, #20]	@ (100002d0 <frame_dummy+0x20>)
100002bc:	e000      	b.n	100002c0 <frame_dummy+0x10>
100002be:	bf00      	nop
100002c0:	f7ff ffe2 	bl	10000288 <register_tm_clones>
100002c4:	bd10      	pop	{r4, pc}
100002c6:	46c0      	nop			@ (mov r8, r8)
100002c8:	00000000 	.word	0x00000000
100002cc:	200006d0 	.word	0x200006d0
100002d0:	10001e58 	.word	0x10001e58

100002d4 <i2c_slave_handler>:
100002d4:	2901      	cmp	r1, #1
100002d6:	d103      	bne.n	100002e0 <i2c_slave_handler+0xc>
100002d8:	22ff      	movs	r2, #255	@ 0xff
100002da:	6803      	ldr	r3, [r0, #0]
100002dc:	611a      	str	r2, [r3, #16]
100002de:	611a      	str	r2, [r3, #16]
100002e0:	4770      	bx	lr
100002e2:	46c0      	nop			@ (mov r8, r8)

100002e4 <init_adc>:
100002e4:	b510      	push	{r4, lr}
100002e6:	f001 f81d 	bl	10001324 <adc_init>
100002ea:	211f      	movs	r1, #31
100002ec:	201a      	movs	r0, #26
100002ee:	f000 ff49 	bl	10001184 <gpio_set_function>
100002f2:	2200      	movs	r2, #0
100002f4:	2100      	movs	r1, #0
100002f6:	201a      	movs	r0, #26
100002f8:	f000 ff5e 	bl	100011b8 <gpio_set_pulls>
100002fc:	2100      	movs	r1, #0
100002fe:	201a      	movs	r0, #26
10000300:	f000 ff6e 	bl	100011e0 <gpio_set_input_enabled>
10000304:	22e0      	movs	r2, #224	@ 0xe0
10000306:	4b03      	ldr	r3, [pc, #12]	@ (10000314 <init_adc+0x30>)
10000308:	01d2      	lsls	r2, r2, #7
1000030a:	681b      	ldr	r3, [r3, #0]
1000030c:	4013      	ands	r3, r2
1000030e:	4a02      	ldr	r2, [pc, #8]	@ (10000318 <init_adc+0x34>)
10000310:	6013      	str	r3, [r2, #0]
10000312:	bd10      	pop	{r4, pc}
10000314:	4004c000 	.word	0x4004c000
10000318:	4004d000 	.word	0x4004d000

1000031c <main>:
1000031c:	b570      	push	{r4, r5, r6, lr}
1000031e:	25d0      	movs	r5, #208	@ 0xd0
10000320:	2680      	movs	r6, #128	@ 0x80
10000322:	f001 fbc7 	bl	10001ab4 <stdio_init_all>
10000326:	4819      	ldr	r0, [pc, #100]	@ (1000038c <main+0x70>)
10000328:	f001 fc16 	bl	10001b58 <__wrap_puts>
1000032c:	062d      	lsls	r5, r5, #24
1000032e:	04b6      	lsls	r6, r6, #18
10000330:	2019      	movs	r0, #25
10000332:	f000 ff69 	bl	10001208 <gpio_init>
10000336:	626e      	str	r6, [r5, #36]	@ 0x24
10000338:	f7ff ffd4 	bl	100002e4 <init_adc>
1000033c:	2004      	movs	r0, #4
1000033e:	f000 ff63 	bl	10001208 <gpio_init>
10000342:	2103      	movs	r1, #3
10000344:	2004      	movs	r0, #4
10000346:	f000 ff1d 	bl	10001184 <gpio_set_function>
1000034a:	2200      	movs	r2, #0
1000034c:	2101      	movs	r1, #1
1000034e:	2004      	movs	r0, #4
10000350:	f000 ff32 	bl	100011b8 <gpio_set_pulls>
10000354:	2005      	movs	r0, #5
10000356:	f000 ff57 	bl	10001208 <gpio_init>
1000035a:	2103      	movs	r1, #3
1000035c:	2005      	movs	r0, #5
1000035e:	f000 ff11 	bl	10001184 <gpio_set_function>
10000362:	2200      	movs	r2, #0
10000364:	2101      	movs	r1, #1
10000366:	2005      	movs	r0, #5
10000368:	f000 ff26 	bl	100011b8 <gpio_set_pulls>
1000036c:	4c08      	ldr	r4, [pc, #32]	@ (10000390 <main+0x74>)
1000036e:	4909      	ldr	r1, [pc, #36]	@ (10000394 <main+0x78>)
10000370:	0020      	movs	r0, r4
10000372:	f000 f899 	bl	100004a8 <i2c_init>
10000376:	0020      	movs	r0, r4
10000378:	213e      	movs	r1, #62	@ 0x3e
1000037a:	4a07      	ldr	r2, [pc, #28]	@ (10000398 <main+0x7c>)
1000037c:	f000 f810 	bl	100003a0 <i2c_slave_init>
10000380:	2201      	movs	r2, #1
10000382:	4b06      	ldr	r3, [pc, #24]	@ (1000039c <main+0x80>)
10000384:	2000      	movs	r0, #0
10000386:	701a      	strb	r2, [r3, #0]
10000388:	616e      	str	r6, [r5, #20]
1000038a:	bd70      	pop	{r4, r5, r6, pc}
1000038c:	10001e58 	.word	0x10001e58
10000390:	20000248 	.word	0x20000248
10000394:	000186a0 	.word	0x000186a0
10000398:	100002d5 	.word	0x100002d5
1000039c:	20000709 	.word	0x20000709

100003a0 <i2c_slave_init>:
100003a0:	b570      	push	{r4, r5, r6, lr}
100003a2:	4c0d      	ldr	r4, [pc, #52]	@ (100003d8 <i2c_slave_init+0x38>)
100003a4:	0005      	movs	r5, r0
100003a6:	1b04      	subs	r4, r0, r4
100003a8:	4263      	negs	r3, r4
100003aa:	415c      	adcs	r4, r3
100003ac:	4b0b      	ldr	r3, [pc, #44]	@ (100003dc <i2c_slave_init+0x3c>)
100003ae:	00e0      	lsls	r0, r4, #3
100003b0:	501a      	str	r2, [r3, r0]
100003b2:	0028      	movs	r0, r5
100003b4:	000a      	movs	r2, r1
100003b6:	2101      	movs	r1, #1
100003b8:	f000 f89e 	bl	100004f8 <i2c_set_slave_mode>
100003bc:	682b      	ldr	r3, [r5, #0]
100003be:	4a08      	ldr	r2, [pc, #32]	@ (100003e0 <i2c_slave_init+0x40>)
100003c0:	3417      	adds	r4, #23
100003c2:	0020      	movs	r0, r4
100003c4:	631a      	str	r2, [r3, #48]	@ 0x30
100003c6:	4907      	ldr	r1, [pc, #28]	@ (100003e4 <i2c_slave_init+0x44>)
100003c8:	f000 fc4a 	bl	10000c60 <irq_set_exclusive_handler>
100003cc:	2101      	movs	r1, #1
100003ce:	0020      	movs	r0, r4
100003d0:	f000 fc34 	bl	10000c3c <irq_set_enabled>
100003d4:	bd70      	pop	{r4, r5, r6, pc}
100003d6:	46c0      	nop			@ (mov r8, r8)
100003d8:	20000240 	.word	0x20000240
100003dc:	200006bc 	.word	0x200006bc
100003e0:	00000664 	.word	0x00000664
100003e4:	200000c1 	.word	0x200000c1

100003e8 <i2c_set_baudrate>:
100003e8:	b5f8      	push	{r3, r4, r5, r6, r7, lr}
100003ea:	46de      	mov	lr, fp
100003ec:	4657      	mov	r7, sl
100003ee:	464e      	mov	r6, r9
100003f0:	4645      	mov	r5, r8
100003f2:	4683      	mov	fp, r0
100003f4:	b5e0      	push	{r5, r6, r7, lr}
100003f6:	2005      	movs	r0, #5
100003f8:	000c      	movs	r4, r1
100003fa:	f000 febd 	bl	10001178 <clock_get_hz>
100003fe:	0006      	movs	r6, r0
10000400:	0860      	lsrs	r0, r4, #1
10000402:	0021      	movs	r1, r4
10000404:	1980      	adds	r0, r0, r6
10000406:	f001 f94b 	bl	100016a0 <__wrap___aeabi_uidiv>
1000040a:	0043      	lsls	r3, r0, #1
1000040c:	4698      	mov	r8, r3
1000040e:	4480      	add	r8, r0
10000410:	0007      	movs	r7, r0
10000412:	2105      	movs	r1, #5
10000414:	4640      	mov	r0, r8
10000416:	f001 f943 	bl	100016a0 <__wrap___aeabi_uidiv>
1000041a:	1a3b      	subs	r3, r7, r0
1000041c:	469a      	mov	sl, r3
1000041e:	4b1e      	ldr	r3, [pc, #120]	@ (10000498 <i2c_set_baudrate+0xb0>)
10000420:	4681      	mov	r9, r0
10000422:	0070      	lsls	r0, r6, #1
10000424:	1980      	adds	r0, r0, r6
10000426:	429c      	cmp	r4, r3
10000428:	d831      	bhi.n	1000048e <i2c_set_baudrate+0xa6>
1000042a:	491c      	ldr	r1, [pc, #112]	@ (1000049c <i2c_set_baudrate+0xb4>)
1000042c:	f001 f938 	bl	100016a0 <__wrap___aeabi_uidiv>
10000430:	1c45      	adds	r5, r0, #1
10000432:	465b      	mov	r3, fp
10000434:	681c      	ldr	r4, [r3, #0]
10000436:	2300      	movs	r3, #0
10000438:	66e3      	str	r3, [r4, #108]	@ 0x6c
1000043a:	6822      	ldr	r2, [r4, #0]
1000043c:	3304      	adds	r3, #4
1000043e:	405a      	eors	r2, r3
10000440:	3302      	adds	r3, #2
10000442:	4013      	ands	r3, r2
10000444:	2280      	movs	r2, #128	@ 0x80
10000446:	0152      	lsls	r2, r2, #5
10000448:	18a2      	adds	r2, r4, r2
1000044a:	6013      	str	r3, [r2, #0]
1000044c:	4653      	mov	r3, sl
1000044e:	61e3      	str	r3, [r4, #28]
10000450:	464b      	mov	r3, r9
10000452:	6223      	str	r3, [r4, #32]
10000454:	4643      	mov	r3, r8
10000456:	2001      	movs	r0, #1
10000458:	2b4f      	cmp	r3, #79	@ 0x4f
1000045a:	d903      	bls.n	10000464 <i2c_set_baudrate+0x7c>
1000045c:	2150      	movs	r1, #80	@ 0x50
1000045e:	4640      	mov	r0, r8
10000460:	f001 f91e 	bl	100016a0 <__wrap___aeabi_uidiv>
10000464:	23a0      	movs	r3, #160	@ 0xa0
10000466:	50e0      	str	r0, [r4, r3]
10000468:	6fe3      	ldr	r3, [r4, #124]	@ 0x7c
1000046a:	0039      	movs	r1, r7
1000046c:	405d      	eors	r5, r3
1000046e:	4b0c      	ldr	r3, [pc, #48]	@ (100004a0 <i2c_set_baudrate+0xb8>)
10000470:	042d      	lsls	r5, r5, #16
10000472:	0c2d      	lsrs	r5, r5, #16
10000474:	18e3      	adds	r3, r4, r3
10000476:	601d      	str	r5, [r3, #0]
10000478:	2301      	movs	r3, #1
1000047a:	0030      	movs	r0, r6
1000047c:	66e3      	str	r3, [r4, #108]	@ 0x6c
1000047e:	f001 f90f 	bl	100016a0 <__wrap___aeabi_uidiv>
10000482:	bcf0      	pop	{r4, r5, r6, r7}
10000484:	46bb      	mov	fp, r7
10000486:	46b2      	mov	sl, r6
10000488:	46a9      	mov	r9, r5
1000048a:	46a0      	mov	r8, r4
1000048c:	bdf8      	pop	{r3, r4, r5, r6, r7, pc}
1000048e:	4905      	ldr	r1, [pc, #20]	@ (100004a4 <i2c_set_baudrate+0xbc>)
10000490:	f001 f906 	bl	100016a0 <__wrap___aeabi_uidiv>
10000494:	1c45      	adds	r5, r0, #1
10000496:	e7cc      	b.n	10000432 <i2c_set_baudrate+0x4a>
10000498:	000f423f 	.word	0x000f423f
1000049c:	00989680 	.word	0x00989680
100004a0:	0000107c 	.word	0x0000107c
100004a4:	017d7840 	.word	0x017d7840

100004a8 <i2c_init>:
100004a8:	4a0f      	ldr	r2, [pc, #60]	@ (100004e8 <i2c_init+0x40>)
100004aa:	b570      	push	{r4, r5, r6, lr}
100004ac:	1a82      	subs	r2, r0, r2
100004ae:	1e53      	subs	r3, r2, #1
100004b0:	419a      	sbcs	r2, r3
100004b2:	4b0e      	ldr	r3, [pc, #56]	@ (100004ec <i2c_init+0x44>)
100004b4:	00d2      	lsls	r2, r2, #3
100004b6:	3208      	adds	r2, #8
100004b8:	601a      	str	r2, [r3, #0]
100004ba:	4b0d      	ldr	r3, [pc, #52]	@ (100004f0 <i2c_init+0x48>)
100004bc:	4c0d      	ldr	r4, [pc, #52]	@ (100004f4 <i2c_init+0x4c>)
100004be:	601a      	str	r2, [r3, #0]
100004c0:	0015      	movs	r5, r2
100004c2:	6823      	ldr	r3, [r4, #0]
100004c4:	439d      	bics	r5, r3
100004c6:	1e2b      	subs	r3, r5, #0
100004c8:	d1fa      	bne.n	100004c0 <i2c_init+0x18>
100004ca:	2466      	movs	r4, #102	@ 0x66
100004cc:	6802      	ldr	r2, [r0, #0]
100004ce:	34ff      	adds	r4, #255	@ 0xff
100004d0:	7105      	strb	r5, [r0, #4]
100004d2:	66d5      	str	r5, [r2, #108]	@ 0x6c
100004d4:	6014      	str	r4, [r2, #0]
100004d6:	3c63      	subs	r4, #99	@ 0x63
100004d8:	3388      	adds	r3, #136	@ 0x88
100004da:	3cff      	subs	r4, #255	@ 0xff
100004dc:	63d5      	str	r5, [r2, #60]	@ 0x3c
100004de:	6395      	str	r5, [r2, #56]	@ 0x38
100004e0:	50d4      	str	r4, [r2, r3]
100004e2:	f7ff ff81 	bl	100003e8 <i2c_set_baudrate>
100004e6:	bd70      	pop	{r4, r5, r6, pc}
100004e8:	20000248 	.word	0x20000248
100004ec:	4000e000 	.word	0x4000e000
100004f0:	4000f000 	.word	0x4000f000
100004f4:	4000c008 	.word	0x4000c008

100004f8 <i2c_set_slave_mode>:
100004f8:	6803      	ldr	r3, [r0, #0]
100004fa:	2000      	movs	r0, #0
100004fc:	66d8      	str	r0, [r3, #108]	@ 0x6c
100004fe:	2900      	cmp	r1, #0
10000500:	d00d      	beq.n	1000051e <i2c_set_slave_mode+0x26>
10000502:	2180      	movs	r1, #128	@ 0x80
10000504:	6818      	ldr	r0, [r3, #0]
10000506:	0089      	lsls	r1, r1, #2
10000508:	4041      	eors	r1, r0
1000050a:	480a      	ldr	r0, [pc, #40]	@ (10000534 <i2c_set_slave_mode+0x3c>)
1000050c:	4001      	ands	r1, r0
1000050e:	2080      	movs	r0, #128	@ 0x80
10000510:	0140      	lsls	r0, r0, #5
10000512:	1818      	adds	r0, r3, r0
10000514:	6001      	str	r1, [r0, #0]
10000516:	609a      	str	r2, [r3, #8]
10000518:	2201      	movs	r2, #1
1000051a:	66da      	str	r2, [r3, #108]	@ 0x6c
1000051c:	4770      	bx	lr
1000051e:	2141      	movs	r1, #65	@ 0x41
10000520:	681a      	ldr	r2, [r3, #0]
10000522:	404a      	eors	r2, r1
10000524:	4903      	ldr	r1, [pc, #12]	@ (10000534 <i2c_set_slave_mode+0x3c>)
10000526:	400a      	ands	r2, r1
10000528:	2180      	movs	r1, #128	@ 0x80
1000052a:	0149      	lsls	r1, r1, #5
1000052c:	1859      	adds	r1, r3, r1
1000052e:	600a      	str	r2, [r1, #0]
10000530:	e7f2      	b.n	10000518 <i2c_set_slave_mode+0x20>
10000532:	46c0      	nop			@ (mov r8, r8)
10000534:	00000241 	.word	0x00000241

10000538 <panic>:
10000538:	b40f      	push	{r0, r1, r2, r3}
1000053a:	b500      	push	{lr}
1000053c:	4808      	ldr	r0, [pc, #32]	@ (10000560 <panic+0x28>)
1000053e:	b083      	sub	sp, #12
10000540:	f001 fb0a 	bl	10001b58 <__wrap_puts>
10000544:	9b04      	ldr	r3, [sp, #16]
10000546:	2b00      	cmp	r3, #0
10000548:	d007      	beq.n	1000055a <panic+0x22>
1000054a:	a905      	add	r1, sp, #20
1000054c:	0018      	movs	r0, r3
1000054e:	9101      	str	r1, [sp, #4]
10000550:	f001 f992 	bl	10001878 <weak_raw_vprintf>
10000554:	4803      	ldr	r0, [pc, #12]	@ (10000564 <panic+0x2c>)
10000556:	f001 faff 	bl	10001b58 <__wrap_puts>
1000055a:	2001      	movs	r0, #1
1000055c:	f001 f9a4 	bl	100018a8 <_exit>
10000560:	10001e6c 	.word	0x10001e6c
10000564:	10001e7c 	.word	0x10001e7c

10000568 <hw_claim_or_assert>:
10000568:	b570      	push	{r4, r5, r6, lr}
1000056a:	f3ef 8c10 	mrs	ip, PRIMASK
1000056e:	b672      	cpsid	i
10000570:	4d0d      	ldr	r5, [pc, #52]	@ (100005a8 <hw_claim_or_assert+0x40>)
10000572:	682b      	ldr	r3, [r5, #0]
10000574:	2b00      	cmp	r3, #0
10000576:	d0fc      	beq.n	10000572 <hw_claim_or_assert+0xa>
10000578:	f3bf 8f5f 	dmb	sy
1000057c:	2407      	movs	r4, #7
1000057e:	08cb      	lsrs	r3, r1, #3
10000580:	18c6      	adds	r6, r0, r3
10000582:	5cc0      	ldrb	r0, [r0, r3]
10000584:	2301      	movs	r3, #1
10000586:	400c      	ands	r4, r1
10000588:	40a3      	lsls	r3, r4
1000058a:	001c      	movs	r4, r3
1000058c:	4004      	ands	r4, r0
1000058e:	4203      	tst	r3, r0
10000590:	d107      	bne.n	100005a2 <hw_claim_or_assert+0x3a>
10000592:	4318      	orrs	r0, r3
10000594:	7030      	strb	r0, [r6, #0]
10000596:	f3bf 8f5f 	dmb	sy
1000059a:	602c      	str	r4, [r5, #0]
1000059c:	f38c 8810 	msr	PRIMASK, ip
100005a0:	bd70      	pop	{r4, r5, r6, pc}
100005a2:	0010      	movs	r0, r2
100005a4:	f7ff ffc8 	bl	10000538 <panic>
100005a8:	d000012c 	.word	0xd000012c

100005ac <next_striped_spin_lock_num>:
100005ac:	4a04      	ldr	r2, [pc, #16]	@ (100005c0 <next_striped_spin_lock_num+0x14>)
100005ae:	7810      	ldrb	r0, [r2, #0]
100005b0:	1c43      	adds	r3, r0, #1
100005b2:	b2db      	uxtb	r3, r3
100005b4:	2b17      	cmp	r3, #23
100005b6:	d900      	bls.n	100005ba <next_striped_spin_lock_num+0xe>
100005b8:	2310      	movs	r3, #16
100005ba:	7013      	strb	r3, [r2, #0]
100005bc:	4770      	bx	lr
100005be:	46c0      	nop			@ (mov r8, r8)
100005c0:	20000250 	.word	0x20000250

100005c4 <spin_locks_reset>:
100005c4:	2100      	movs	r1, #0
100005c6:	4b04      	ldr	r3, [pc, #16]	@ (100005d8 <spin_locks_reset+0x14>)
100005c8:	4a04      	ldr	r2, [pc, #16]	@ (100005dc <spin_locks_reset+0x18>)
100005ca:	f3bf 8f5f 	dmb	sy
100005ce:	c302      	stmia	r3!, {r1}
100005d0:	4293      	cmp	r3, r2
100005d2:	d1fa      	bne.n	100005ca <spin_locks_reset+0x6>
100005d4:	4770      	bx	lr
100005d6:	46c0      	nop			@ (mov r8, r8)
100005d8:	d0000100 	.word	0xd0000100
100005dc:	d0000180 	.word	0xd0000180

100005e0 <sleep_until_callback>:
100005e0:	4b0a      	ldr	r3, [pc, #40]	@ (1000060c <sleep_until_callback+0x2c>)
100005e2:	6819      	ldr	r1, [r3, #0]
100005e4:	f3ef 8010 	mrs	r0, PRIMASK
100005e8:	b672      	cpsid	i
100005ea:	680a      	ldr	r2, [r1, #0]
100005ec:	2a00      	cmp	r2, #0
100005ee:	d0fc      	beq.n	100005ea <sleep_until_callback+0xa>
100005f0:	f3bf 8f5f 	dmb	sy
100005f4:	681b      	ldr	r3, [r3, #0]
100005f6:	f3bf 8f5f 	dmb	sy
100005fa:	2200      	movs	r2, #0
100005fc:	601a      	str	r2, [r3, #0]
100005fe:	f380 8810 	msr	PRIMASK, r0
10000602:	bf40      	sev
10000604:	2000      	movs	r0, #0
10000606:	2100      	movs	r1, #0
10000608:	4770      	bx	lr
1000060a:	46c0      	nop			@ (mov r8, r8)
1000060c:	200006fc 	.word	0x200006fc

10000610 <alarm_pool_irq_handler>:
10000610:	b5f0      	push	{r4, r5, r6, r7, lr}
10000612:	46de      	mov	lr, fp
10000614:	4657      	mov	r7, sl
10000616:	464e      	mov	r6, r9
10000618:	4645      	mov	r5, r8
1000061a:	b5e0      	push	{r5, r6, r7, lr}
1000061c:	b083      	sub	sp, #12
1000061e:	f3ef 8305 	mrs	r3, IPSR
10000622:	2203      	movs	r2, #3
10000624:	401a      	ands	r2, r3
10000626:	4693      	mov	fp, r2
10000628:	4bae      	ldr	r3, [pc, #696]	@ (100008e4 <alarm_pool_irq_handler+0x2d4>)
1000062a:	0092      	lsls	r2, r2, #2
1000062c:	4cae      	ldr	r4, [pc, #696]	@ (100008e8 <alarm_pool_irq_handler+0x2d8>)
1000062e:	58d3      	ldr	r3, [r2, r3]
10000630:	0020      	movs	r0, r4
10000632:	4698      	mov	r8, r3
10000634:	f000 faaa 	bl	10000b8c <timer_time_us_64>
10000638:	465a      	mov	r2, fp
1000063a:	2301      	movs	r3, #1
1000063c:	4093      	lsls	r3, r2
1000063e:	001a      	movs	r2, r3
10000640:	9301      	str	r3, [sp, #4]
10000642:	4baa      	ldr	r3, [pc, #680]	@ (100008ec <alarm_pool_irq_handler+0x2dc>)
10000644:	601a      	str	r2, [r3, #0]
10000646:	4643      	mov	r3, r8
10000648:	2508      	movs	r5, #8
1000064a:	5f5b      	ldrsh	r3, [r3, r5]
1000064c:	6362      	str	r2, [r4, #52]	@ 0x34
1000064e:	4699      	mov	r9, r3
10000650:	2b00      	cmp	r3, #0
10000652:	db00      	blt.n	10000656 <alarm_pool_irq_handler+0x46>
10000654:	e13e      	b.n	100008d4 <alarm_pool_irq_handler+0x2c4>
10000656:	4643      	mov	r3, r8
10000658:	889b      	ldrh	r3, [r3, #4]
1000065a:	b21b      	sxth	r3, r3
1000065c:	2b00      	cmp	r3, #0
1000065e:	db00      	blt.n	10000662 <alarm_pool_irq_handler+0x52>
10000660:	e083      	b.n	1000076a <alarm_pool_irq_handler+0x15a>
10000662:	4643      	mov	r3, r8
10000664:	799b      	ldrb	r3, [r3, #6]
10000666:	2b00      	cmp	r3, #0
10000668:	d000      	beq.n	1000066c <alarm_pool_irq_handler+0x5c>
1000066a:	e0c5      	b.n	100007f8 <alarm_pool_irq_handler+0x1e8>
1000066c:	4c9e      	ldr	r4, [pc, #632]	@ (100008e8 <alarm_pool_irq_handler+0x2d8>)
1000066e:	0020      	movs	r0, r4
10000670:	f000 fa8c 	bl	10000b8c <timer_time_us_64>
10000674:	4643      	mov	r3, r8
10000676:	2208      	movs	r2, #8
10000678:	5e9b      	ldrsh	r3, [r3, r2]
1000067a:	4699      	mov	r9, r3
1000067c:	2b00      	cmp	r3, #0
1000067e:	da00      	bge.n	10000682 <alarm_pool_irq_handler+0x72>
10000680:	e113      	b.n	100008aa <alarm_pool_irq_handler+0x29a>
10000682:	4643      	mov	r3, r8
10000684:	695d      	ldr	r5, [r3, #20]
10000686:	464b      	mov	r3, r9
10000688:	005a      	lsls	r2, r3, #1
1000068a:	18d3      	adds	r3, r2, r3
1000068c:	00db      	lsls	r3, r3, #3
1000068e:	18eb      	adds	r3, r5, r3
10000690:	689e      	ldr	r6, [r3, #8]
10000692:	68df      	ldr	r7, [r3, #12]
10000694:	465b      	mov	r3, fp
10000696:	3304      	adds	r3, #4
10000698:	009b      	lsls	r3, r3, #2
1000069a:	511e      	str	r6, [r3, r4]
1000069c:	428f      	cmp	r7, r1
1000069e:	dd00      	ble.n	100006a2 <alarm_pool_irq_handler+0x92>
100006a0:	e103      	b.n	100008aa <alarm_pool_irq_handler+0x29a>
100006a2:	d100      	bne.n	100006a6 <alarm_pool_irq_handler+0x96>
100006a4:	e0fe      	b.n	100008a4 <alarm_pool_irq_handler+0x294>
100006a6:	4b90      	ldr	r3, [pc, #576]	@ (100008e8 <alarm_pool_irq_handler+0x2d8>)
100006a8:	9c01      	ldr	r4, [sp, #4]
100006aa:	635c      	str	r4, [r3, #52]	@ 0x34
100006ac:	46aa      	mov	sl, r5
100006ae:	444a      	add	r2, r9
100006b0:	00d2      	lsls	r2, r2, #3
100006b2:	4492      	add	sl, r2
100006b4:	4653      	mov	r3, sl
100006b6:	689e      	ldr	r6, [r3, #8]
100006b8:	68df      	ldr	r7, [r3, #12]
100006ba:	428f      	cmp	r7, r1
100006bc:	dccb      	bgt.n	10000656 <alarm_pool_irq_handler+0x46>
100006be:	d100      	bne.n	100006c2 <alarm_pool_irq_handler+0xb2>
100006c0:	e0ec      	b.n	1000089c <alarm_pool_irq_handler+0x28c>
100006c2:	2f00      	cmp	r7, #0
100006c4:	da00      	bge.n	100006c8 <alarm_pool_irq_handler+0xb8>
100006c6:	e0cd      	b.n	10000864 <alarm_pool_irq_handler+0x254>
100006c8:	4652      	mov	r2, sl
100006ca:	4653      	mov	r3, sl
100006cc:	6954      	ldr	r4, [r2, #20]
100006ce:	691b      	ldr	r3, [r3, #16]
100006d0:	4a87      	ldr	r2, [pc, #540]	@ (100008f0 <alarm_pool_irq_handler+0x2e0>)
100006d2:	4293      	cmp	r3, r2
100006d4:	d100      	bne.n	100006d8 <alarm_pool_irq_handler+0xc8>
100006d6:	e0ef      	b.n	100008b8 <alarm_pool_irq_handler+0x2a8>
100006d8:	4652      	mov	r2, sl
100006da:	4649      	mov	r1, r9
100006dc:	8852      	ldrh	r2, [r2, #2]
100006de:	0408      	lsls	r0, r1, #16
100006e0:	4310      	orrs	r0, r2
100006e2:	0021      	movs	r1, r4
100006e4:	4798      	blx	r3
100006e6:	0004      	movs	r4, r0
100006e8:	000d      	movs	r5, r1
100006ea:	0023      	movs	r3, r4
100006ec:	432b      	orrs	r3, r5
100006ee:	d100      	bne.n	100006f2 <alarm_pool_irq_handler+0xe2>
100006f0:	e0b8      	b.n	10000864 <alarm_pool_irq_handler+0x254>
100006f2:	2d00      	cmp	r5, #0
100006f4:	db00      	blt.n	100006f8 <alarm_pool_irq_handler+0xe8>
100006f6:	e0e7      	b.n	100008c8 <alarm_pool_irq_handler+0x2b8>
100006f8:	0030      	movs	r0, r6
100006fa:	0039      	movs	r1, r7
100006fc:	1b00      	subs	r0, r0, r4
100006fe:	41a9      	sbcs	r1, r5
10000700:	4653      	mov	r3, sl
10000702:	6098      	str	r0, [r3, #8]
10000704:	60d9      	str	r1, [r3, #12]
10000706:	2200      	movs	r2, #0
10000708:	5e9a      	ldrsh	r2, [r3, r2]
1000070a:	2a00      	cmp	r2, #0
1000070c:	dba3      	blt.n	10000656 <alarm_pool_irq_handler+0x46>
1000070e:	4643      	mov	r3, r8
10000710:	695d      	ldr	r5, [r3, #20]
10000712:	0053      	lsls	r3, r2, #1
10000714:	189c      	adds	r4, r3, r2
10000716:	00e4      	lsls	r4, r4, #3
10000718:	192c      	adds	r4, r5, r4
1000071a:	68a7      	ldr	r7, [r4, #8]
1000071c:	68e4      	ldr	r4, [r4, #12]
1000071e:	428c      	cmp	r4, r1
10000720:	dc99      	bgt.n	10000656 <alarm_pool_irq_handler+0x46>
10000722:	d101      	bne.n	10000728 <alarm_pool_irq_handler+0x118>
10000724:	4287      	cmp	r7, r0
10000726:	d896      	bhi.n	10000656 <alarm_pool_irq_handler+0x46>
10000728:	4646      	mov	r6, r8
1000072a:	8132      	strh	r2, [r6, #8]
1000072c:	3608      	adds	r6, #8
1000072e:	e00d      	b.n	1000074c <alarm_pool_irq_handler+0x13c>
10000730:	428c      	cmp	r4, r1
10000732:	d100      	bne.n	10000736 <alarm_pool_irq_handler+0x126>
10000734:	e0d2      	b.n	100008dc <alarm_pool_irq_handler+0x2cc>
10000736:	001e      	movs	r6, r3
10000738:	2300      	movs	r3, #0
1000073a:	5ef2      	ldrsh	r2, [r6, r3]
1000073c:	2a00      	cmp	r2, #0
1000073e:	db0a      	blt.n	10000756 <alarm_pool_irq_handler+0x146>
10000740:	0053      	lsls	r3, r2, #1
10000742:	189c      	adds	r4, r3, r2
10000744:	00e4      	lsls	r4, r4, #3
10000746:	192c      	adds	r4, r5, r4
10000748:	68a7      	ldr	r7, [r4, #8]
1000074a:	68e4      	ldr	r4, [r4, #12]
1000074c:	189b      	adds	r3, r3, r2
1000074e:	00db      	lsls	r3, r3, #3
10000750:	18eb      	adds	r3, r5, r3
10000752:	428c      	cmp	r4, r1
10000754:	ddec      	ble.n	10000730 <alarm_pool_irq_handler+0x120>
10000756:	4653      	mov	r3, sl
10000758:	801a      	strh	r2, [r3, #0]
1000075a:	464b      	mov	r3, r9
1000075c:	8033      	strh	r3, [r6, #0]
1000075e:	4643      	mov	r3, r8
10000760:	889b      	ldrh	r3, [r3, #4]
10000762:	b21b      	sxth	r3, r3
10000764:	2b00      	cmp	r3, #0
10000766:	da00      	bge.n	1000076a <alarm_pool_irq_handler+0x15a>
10000768:	e77b      	b.n	10000662 <alarm_pool_irq_handler+0x52>
1000076a:	4643      	mov	r3, r8
1000076c:	691a      	ldr	r2, [r3, #16]
1000076e:	f3ef 8110 	mrs	r1, PRIMASK
10000772:	b672      	cpsid	i
10000774:	6813      	ldr	r3, [r2, #0]
10000776:	2b00      	cmp	r3, #0
10000778:	d0fc      	beq.n	10000774 <alarm_pool_irq_handler+0x164>
1000077a:	f3bf 8f5f 	dmb	sy
1000077e:	4643      	mov	r3, r8
10000780:	889e      	ldrh	r6, [r3, #4]
10000782:	2301      	movs	r3, #1
10000784:	4642      	mov	r2, r8
10000786:	425b      	negs	r3, r3
10000788:	8093      	strh	r3, [r2, #4]
1000078a:	b236      	sxth	r6, r6
1000078c:	6913      	ldr	r3, [r2, #16]
1000078e:	f3bf 8f5f 	dmb	sy
10000792:	2200      	movs	r2, #0
10000794:	601a      	str	r2, [r3, #0]
10000796:	f381 8810 	msr	PRIMASK, r1
1000079a:	2e00      	cmp	r6, #0
1000079c:	da00      	bge.n	100007a0 <alarm_pool_irq_handler+0x190>
1000079e:	e760      	b.n	10000662 <alarm_pool_irq_handler+0x52>
100007a0:	4643      	mov	r3, r8
100007a2:	695d      	ldr	r5, [r3, #20]
100007a4:	2308      	movs	r3, #8
100007a6:	4443      	add	r3, r8
100007a8:	469c      	mov	ip, r3
100007aa:	0074      	lsls	r4, r6, #1
100007ac:	19a4      	adds	r4, r4, r6
100007ae:	00e4      	lsls	r4, r4, #3
100007b0:	192c      	adds	r4, r5, r4
100007b2:	68a3      	ldr	r3, [r4, #8]
100007b4:	4661      	mov	r1, ip
100007b6:	469a      	mov	sl, r3
100007b8:	4643      	mov	r3, r8
100007ba:	2208      	movs	r2, #8
100007bc:	5e9a      	ldrsh	r2, [r3, r2]
100007be:	68e0      	ldr	r0, [r4, #12]
100007c0:	2a00      	cmp	r2, #0
100007c2:	da07      	bge.n	100007d4 <alarm_pool_irq_handler+0x1c4>
100007c4:	e00d      	b.n	100007e2 <alarm_pool_irq_handler+0x1d2>
100007c6:	4287      	cmp	r7, r0
100007c8:	d042      	beq.n	10000850 <alarm_pool_irq_handler+0x240>
100007ca:	0019      	movs	r1, r3
100007cc:	2300      	movs	r3, #0
100007ce:	5eca      	ldrsh	r2, [r1, r3]
100007d0:	2a00      	cmp	r2, #0
100007d2:	db06      	blt.n	100007e2 <alarm_pool_irq_handler+0x1d2>
100007d4:	0053      	lsls	r3, r2, #1
100007d6:	189b      	adds	r3, r3, r2
100007d8:	00db      	lsls	r3, r3, #3
100007da:	18eb      	adds	r3, r5, r3
100007dc:	68df      	ldr	r7, [r3, #12]
100007de:	4287      	cmp	r7, r0
100007e0:	ddf1      	ble.n	100007c6 <alarm_pool_irq_handler+0x1b6>
100007e2:	800e      	strh	r6, [r1, #0]
100007e4:	2300      	movs	r3, #0
100007e6:	5ee6      	ldrsh	r6, [r4, r3]
100007e8:	8022      	strh	r2, [r4, #0]
100007ea:	2e00      	cmp	r6, #0
100007ec:	dadd      	bge.n	100007aa <alarm_pool_irq_handler+0x19a>
100007ee:	4643      	mov	r3, r8
100007f0:	799b      	ldrb	r3, [r3, #6]
100007f2:	2b00      	cmp	r3, #0
100007f4:	d100      	bne.n	100007f8 <alarm_pool_irq_handler+0x1e8>
100007f6:	e739      	b.n	1000066c <alarm_pool_irq_handler+0x5c>
100007f8:	2300      	movs	r3, #0
100007fa:	4642      	mov	r2, r8
100007fc:	7193      	strb	r3, [r2, #6]
100007fe:	4643      	mov	r3, r8
10000800:	4645      	mov	r5, r8
10000802:	2608      	movs	r6, #8
10000804:	5f9e      	ldrsh	r6, [r3, r6]
10000806:	3508      	adds	r5, #8
10000808:	1c73      	adds	r3, r6, #1
1000080a:	d100      	bne.n	1000080e <alarm_pool_irq_handler+0x1fe>
1000080c:	e72e      	b.n	1000066c <alarm_pool_irq_handler+0x5c>
1000080e:	6954      	ldr	r4, [r2, #20]
10000810:	e003      	b.n	1000081a <alarm_pool_irq_handler+0x20a>
10000812:	003d      	movs	r5, r7
10000814:	1c73      	adds	r3, r6, #1
10000816:	d100      	bne.n	1000081a <alarm_pool_irq_handler+0x20a>
10000818:	e728      	b.n	1000066c <alarm_pool_irq_handler+0x5c>
1000081a:	0073      	lsls	r3, r6, #1
1000081c:	199b      	adds	r3, r3, r6
1000081e:	00db      	lsls	r3, r3, #3
10000820:	18e7      	adds	r7, r4, r3
10000822:	0032      	movs	r2, r6
10000824:	5ee6      	ldrsh	r6, [r4, r3]
10000826:	887b      	ldrh	r3, [r7, #2]
10000828:	b21b      	sxth	r3, r3
1000082a:	2b00      	cmp	r3, #0
1000082c:	daf1      	bge.n	10000812 <alarm_pool_irq_handler+0x202>
1000082e:	2001      	movs	r0, #1
10000830:	4240      	negs	r0, r0
10000832:	17c1      	asrs	r1, r0, #31
10000834:	4643      	mov	r3, r8
10000836:	60b8      	str	r0, [r7, #8]
10000838:	60f9      	str	r1, [r7, #12]
1000083a:	2108      	movs	r1, #8
1000083c:	5e5b      	ldrsh	r3, [r3, r1]
1000083e:	4293      	cmp	r3, r2
10000840:	d0e8      	beq.n	10000814 <alarm_pool_irq_handler+0x204>
10000842:	4643      	mov	r3, r8
10000844:	802e      	strh	r6, [r5, #0]
10000846:	891b      	ldrh	r3, [r3, #8]
10000848:	803b      	strh	r3, [r7, #0]
1000084a:	4643      	mov	r3, r8
1000084c:	811a      	strh	r2, [r3, #8]
1000084e:	e7e1      	b.n	10000814 <alarm_pool_irq_handler+0x204>
10000850:	689f      	ldr	r7, [r3, #8]
10000852:	4557      	cmp	r7, sl
10000854:	d9b9      	bls.n	100007ca <alarm_pool_irq_handler+0x1ba>
10000856:	800e      	strh	r6, [r1, #0]
10000858:	2300      	movs	r3, #0
1000085a:	5ee6      	ldrsh	r6, [r4, r3]
1000085c:	8022      	strh	r2, [r4, #0]
1000085e:	2e00      	cmp	r6, #0
10000860:	daa3      	bge.n	100007aa <alarm_pool_irq_handler+0x19a>
10000862:	e7c4      	b.n	100007ee <alarm_pool_irq_handler+0x1de>
10000864:	4653      	mov	r3, sl
10000866:	4642      	mov	r2, r8
10000868:	881b      	ldrh	r3, [r3, #0]
1000086a:	8113      	strh	r3, [r2, #8]
1000086c:	6912      	ldr	r2, [r2, #16]
1000086e:	f3ef 8310 	mrs	r3, PRIMASK
10000872:	b672      	cpsid	i
10000874:	6811      	ldr	r1, [r2, #0]
10000876:	2900      	cmp	r1, #0
10000878:	d0fc      	beq.n	10000874 <alarm_pool_irq_handler+0x264>
1000087a:	f3bf 8f5f 	dmb	sy
1000087e:	4642      	mov	r2, r8
10000880:	4651      	mov	r1, sl
10000882:	8852      	ldrh	r2, [r2, #2]
10000884:	800a      	strh	r2, [r1, #0]
10000886:	4642      	mov	r2, r8
10000888:	4649      	mov	r1, r9
1000088a:	8051      	strh	r1, [r2, #2]
1000088c:	6912      	ldr	r2, [r2, #16]
1000088e:	f3bf 8f5f 	dmb	sy
10000892:	2100      	movs	r1, #0
10000894:	6011      	str	r1, [r2, #0]
10000896:	f383 8810 	msr	PRIMASK, r3
1000089a:	e6dc      	b.n	10000656 <alarm_pool_irq_handler+0x46>
1000089c:	4286      	cmp	r6, r0
1000089e:	d800      	bhi.n	100008a2 <alarm_pool_irq_handler+0x292>
100008a0:	e70f      	b.n	100006c2 <alarm_pool_irq_handler+0xb2>
100008a2:	e6d8      	b.n	10000656 <alarm_pool_irq_handler+0x46>
100008a4:	4286      	cmp	r6, r0
100008a6:	d800      	bhi.n	100008aa <alarm_pool_irq_handler+0x29a>
100008a8:	e6fd      	b.n	100006a6 <alarm_pool_irq_handler+0x96>
100008aa:	b003      	add	sp, #12
100008ac:	bcf0      	pop	{r4, r5, r6, r7}
100008ae:	46bb      	mov	fp, r7
100008b0:	46b2      	mov	sl, r6
100008b2:	46a9      	mov	r9, r5
100008b4:	46a0      	mov	r8, r4
100008b6:	bdf0      	pop	{r4, r5, r6, r7, pc}
100008b8:	0020      	movs	r0, r4
100008ba:	6923      	ldr	r3, [r4, #16]
100008bc:	4798      	blx	r3
100008be:	2800      	cmp	r0, #0
100008c0:	d0d0      	beq.n	10000864 <alarm_pool_irq_handler+0x254>
100008c2:	6865      	ldr	r5, [r4, #4]
100008c4:	6824      	ldr	r4, [r4, #0]
100008c6:	e710      	b.n	100006ea <alarm_pool_irq_handler+0xda>
100008c8:	4807      	ldr	r0, [pc, #28]	@ (100008e8 <alarm_pool_irq_handler+0x2d8>)
100008ca:	f000 f95f 	bl	10000b8c <timer_time_us_64>
100008ce:	1900      	adds	r0, r0, r4
100008d0:	4169      	adcs	r1, r5
100008d2:	e715      	b.n	10000700 <alarm_pool_irq_handler+0xf0>
100008d4:	005a      	lsls	r2, r3, #1
100008d6:	4643      	mov	r3, r8
100008d8:	695d      	ldr	r5, [r3, #20]
100008da:	e6e7      	b.n	100006ac <alarm_pool_irq_handler+0x9c>
100008dc:	4287      	cmp	r7, r0
100008de:	d800      	bhi.n	100008e2 <alarm_pool_irq_handler+0x2d2>
100008e0:	e729      	b.n	10000736 <alarm_pool_irq_handler+0x126>
100008e2:	e738      	b.n	10000756 <alarm_pool_irq_handler+0x146>
100008e4:	200006e8 	.word	0x200006e8
100008e8:	40054000 	.word	0x40054000
100008ec:	4005703c 	.word	0x4005703c
100008f0:	10000611 	.word	0x10000611

100008f4 <runtime_init_default_alarm_pool>:
100008f4:	b570      	push	{r4, r5, r6, lr}
100008f6:	4c2e      	ldr	r4, [pc, #184]	@ (100009b0 <runtime_init_default_alarm_pool+0xbc>)
100008f8:	6925      	ldr	r5, [r4, #16]
100008fa:	2d00      	cmp	r5, #0
100008fc:	d004      	beq.n	10000908 <runtime_init_default_alarm_pool+0x14>
100008fe:	210a      	movs	r1, #10
10000900:	482c      	ldr	r0, [pc, #176]	@ (100009b4 <runtime_init_default_alarm_pool+0xc0>)
10000902:	f000 fb1b 	bl	10000f3c <lock_init>
10000906:	bd70      	pop	{r4, r5, r6, pc}
10000908:	4e2b      	ldr	r6, [pc, #172]	@ (100009b8 <runtime_init_default_alarm_pool+0xc4>)
1000090a:	2103      	movs	r1, #3
1000090c:	0030      	movs	r0, r6
1000090e:	f000 f933 	bl	10000b78 <timer_hardware_alarm_claim>
10000912:	60e6      	str	r6, [r4, #12]
10000914:	f7ff fe4a 	bl	100005ac <next_striped_spin_lock_num>
10000918:	4b28      	ldr	r3, [pc, #160]	@ (100009bc <runtime_init_default_alarm_pool+0xc8>)
1000091a:	2203      	movs	r2, #3
1000091c:	469c      	mov	ip, r3
1000091e:	23d0      	movs	r3, #208	@ 0xd0
10000920:	7022      	strb	r2, [r4, #0]
10000922:	061b      	lsls	r3, r3, #24
10000924:	681b      	ldr	r3, [r3, #0]
10000926:	2101      	movs	r1, #1
10000928:	7063      	strb	r3, [r4, #1]
1000092a:	4b25      	ldr	r3, [pc, #148]	@ (100009c0 <runtime_init_default_alarm_pool+0xcc>)
1000092c:	4460      	add	r0, ip
1000092e:	60a3      	str	r3, [r4, #8]
10000930:	230f      	movs	r3, #15
10000932:	0080      	lsls	r0, r0, #2
10000934:	6120      	str	r0, [r4, #16]
10000936:	2002      	movs	r0, #2
10000938:	8063      	strh	r3, [r4, #2]
1000093a:	6963      	ldr	r3, [r4, #20]
1000093c:	4249      	negs	r1, r1
1000093e:	80a1      	strh	r1, [r4, #4]
10000940:	8019      	strh	r1, [r3, #0]
10000942:	3102      	adds	r1, #2
10000944:	8619      	strh	r1, [r3, #48]	@ 0x30
10000946:	3147      	adds	r1, #71	@ 0x47
10000948:	831d      	strh	r5, [r3, #24]
1000094a:	5258      	strh	r0, [r3, r1]
1000094c:	3118      	adds	r1, #24
1000094e:	525a      	strh	r2, [r3, r1]
10000950:	3275      	adds	r2, #117	@ 0x75
10000952:	395c      	subs	r1, #92	@ 0x5c
10000954:	5299      	strh	r1, [r3, r2]
10000956:	3218      	adds	r2, #24
10000958:	3101      	adds	r1, #1
1000095a:	5299      	strh	r1, [r3, r2]
1000095c:	3218      	adds	r2, #24
1000095e:	3101      	adds	r1, #1
10000960:	5299      	strh	r1, [r3, r2]
10000962:	3218      	adds	r2, #24
10000964:	3101      	adds	r1, #1
10000966:	5299      	strh	r1, [r3, r2]
10000968:	3508      	adds	r5, #8
1000096a:	3218      	adds	r2, #24
1000096c:	529d      	strh	r5, [r3, r2]
1000096e:	3102      	adds	r1, #2
10000970:	3218      	adds	r2, #24
10000972:	5299      	strh	r1, [r3, r2]
10000974:	3218      	adds	r2, #24
10000976:	3101      	adds	r1, #1
10000978:	5299      	strh	r1, [r3, r2]
1000097a:	3218      	adds	r2, #24
1000097c:	3101      	adds	r1, #1
1000097e:	5299      	strh	r1, [r3, r2]
10000980:	3218      	adds	r2, #24
10000982:	3101      	adds	r1, #1
10000984:	5299      	strh	r1, [r3, r2]
10000986:	3218      	adds	r2, #24
10000988:	3101      	adds	r1, #1
1000098a:	5299      	strh	r1, [r3, r2]
1000098c:	3218      	adds	r2, #24
1000098e:	3101      	adds	r1, #1
10000990:	5299      	strh	r1, [r3, r2]
10000992:	4b0c      	ldr	r3, [pc, #48]	@ (100009c4 <runtime_init_default_alarm_pool+0xd0>)
10000994:	490c      	ldr	r1, [pc, #48]	@ (100009c8 <runtime_init_default_alarm_pool+0xd4>)
10000996:	60dc      	str	r4, [r3, #12]
10000998:	3001      	adds	r0, #1
1000099a:	6235      	str	r5, [r6, #32]
1000099c:	f000 f960 	bl	10000c60 <irq_set_exclusive_handler>
100009a0:	2101      	movs	r1, #1
100009a2:	2003      	movs	r0, #3
100009a4:	f000 f94a 	bl	10000c3c <irq_set_enabled>
100009a8:	4b08      	ldr	r3, [pc, #32]	@ (100009cc <runtime_init_default_alarm_pool+0xd8>)
100009aa:	601d      	str	r5, [r3, #0]
100009ac:	e7a7      	b.n	100008fe <runtime_init_default_alarm_pool+0xa>
100009ae:	46c0      	nop			@ (mov r8, r8)
100009b0:	20000254 	.word	0x20000254
100009b4:	200006fc 	.word	0x200006fc
100009b8:	40054000 	.word	0x40054000
100009bc:	34000040 	.word	0x34000040
100009c0:	0010ffff 	.word	0x0010ffff
100009c4:	200006e8 	.word	0x200006e8
100009c8:	10000611 	.word	0x10000611
100009cc:	40056038 	.word	0x40056038

100009d0 <alarm_pool_cancel_alarm>:
100009d0:	b510      	push	{r4, lr}
100009d2:	8943      	ldrh	r3, [r0, #10]
100009d4:	140a      	asrs	r2, r1, #16
100009d6:	4293      	cmp	r3, r2
100009d8:	dd1a      	ble.n	10000a10 <alarm_pool_cancel_alarm+0x40>
100009da:	0053      	lsls	r3, r2, #1
100009dc:	189b      	adds	r3, r3, r2
100009de:	6942      	ldr	r2, [r0, #20]
100009e0:	00db      	lsls	r3, r3, #3
100009e2:	18d3      	adds	r3, r2, r3
100009e4:	6904      	ldr	r4, [r0, #16]
100009e6:	f3ef 8c10 	mrs	ip, PRIMASK
100009ea:	b672      	cpsid	i
100009ec:	6822      	ldr	r2, [r4, #0]
100009ee:	2a00      	cmp	r2, #0
100009f0:	d0fc      	beq.n	100009ec <alarm_pool_cancel_alarm+0x1c>
100009f2:	f3bf 8f5f 	dmb	sy
100009f6:	885a      	ldrh	r2, [r3, #2]
100009f8:	0409      	lsls	r1, r1, #16
100009fa:	b294      	uxth	r4, r2
100009fc:	0c09      	lsrs	r1, r1, #16
100009fe:	428a      	cmp	r2, r1
10000a00:	d008      	beq.n	10000a14 <alarm_pool_cancel_alarm+0x44>
10000a02:	6903      	ldr	r3, [r0, #16]
10000a04:	f3bf 8f5f 	dmb	sy
10000a08:	2200      	movs	r2, #0
10000a0a:	601a      	str	r2, [r3, #0]
10000a0c:	f38c 8810 	msr	PRIMASK, ip
10000a10:	2000      	movs	r0, #0
10000a12:	bd10      	pop	{r4, pc}
10000a14:	2280      	movs	r2, #128	@ 0x80
10000a16:	0212      	lsls	r2, r2, #8
10000a18:	4314      	orrs	r4, r2
10000a1a:	805c      	strh	r4, [r3, #2]
10000a1c:	2301      	movs	r3, #1
10000a1e:	6902      	ldr	r2, [r0, #16]
10000a20:	7183      	strb	r3, [r0, #6]
10000a22:	f3bf 8f5f 	dmb	sy
10000a26:	2100      	movs	r1, #0
10000a28:	6011      	str	r1, [r2, #0]
10000a2a:	f38c 8810 	msr	PRIMASK, ip
10000a2e:	4904      	ldr	r1, [pc, #16]	@ (10000a40 <alarm_pool_cancel_alarm+0x70>)
10000a30:	7802      	ldrb	r2, [r0, #0]
10000a32:	468c      	mov	ip, r1
10000a34:	4093      	lsls	r3, r2
10000a36:	68c2      	ldr	r2, [r0, #12]
10000a38:	2001      	movs	r0, #1
10000a3a:	4462      	add	r2, ip
10000a3c:	6013      	str	r3, [r2, #0]
10000a3e:	e7e8      	b.n	10000a12 <alarm_pool_cancel_alarm+0x42>
10000a40:	0000203c 	.word	0x0000203c

10000a44 <best_effort_wfe_or_timeout>:
10000a44:	b5f0      	push	{r4, r5, r6, r7, lr}
10000a46:	46c6      	mov	lr, r8
10000a48:	0004      	movs	r4, r0
10000a4a:	000d      	movs	r5, r1
10000a4c:	b500      	push	{lr}
10000a4e:	f3ef 8305 	mrs	r3, IPSR
10000a52:	000e      	movs	r6, r1
10000a54:	2b00      	cmp	r3, #0
10000a56:	d00c      	beq.n	10000a72 <best_effort_wfe_or_timeout+0x2e>
10000a58:	4943      	ldr	r1, [pc, #268]	@ (10000b68 <best_effort_wfe_or_timeout+0x124>)
10000a5a:	2000      	movs	r0, #0
10000a5c:	6a4b      	ldr	r3, [r1, #36]	@ 0x24
10000a5e:	42ab      	cmp	r3, r5
10000a60:	d304      	bcc.n	10000a6c <best_effort_wfe_or_timeout+0x28>
10000a62:	6a8a      	ldr	r2, [r1, #40]	@ 0x28
10000a64:	3001      	adds	r0, #1
10000a66:	42a2      	cmp	r2, r4
10000a68:	d200      	bcs.n	10000a6c <best_effort_wfe_or_timeout+0x28>
10000a6a:	e06a      	b.n	10000b42 <best_effort_wfe_or_timeout+0xfe>
10000a6c:	bc80      	pop	{r7}
10000a6e:	46b8      	mov	r8, r7
10000a70:	bdf0      	pop	{r4, r5, r6, r7, pc}
10000a72:	f000 f893 	bl	10000b9c <time_us_64>
10000a76:	0022      	movs	r2, r4
10000a78:	002b      	movs	r3, r5
10000a7a:	1a12      	subs	r2, r2, r0
10000a7c:	418b      	sbcs	r3, r1
10000a7e:	2b00      	cmp	r3, #0
10000a80:	db54      	blt.n	10000b2c <best_effort_wfe_or_timeout+0xe8>
10000a82:	483a      	ldr	r0, [pc, #232]	@ (10000b6c <best_effort_wfe_or_timeout+0x128>)
10000a84:	6902      	ldr	r2, [r0, #16]
10000a86:	f3ef 8810 	mrs	r8, PRIMASK
10000a8a:	b672      	cpsid	i
10000a8c:	6813      	ldr	r3, [r2, #0]
10000a8e:	2b00      	cmp	r3, #0
10000a90:	d0fc      	beq.n	10000a8c <best_effort_wfe_or_timeout+0x48>
10000a92:	f3bf 8f5f 	dmb	sy
10000a96:	2302      	movs	r3, #2
10000a98:	5ec7      	ldrsh	r7, [r0, r3]
10000a9a:	6943      	ldr	r3, [r0, #20]
10000a9c:	007a      	lsls	r2, r7, #1
10000a9e:	19d2      	adds	r2, r2, r7
10000aa0:	00d2      	lsls	r2, r2, #3
10000aa2:	189b      	adds	r3, r3, r2
10000aa4:	2f00      	cmp	r7, #0
10000aa6:	db57      	blt.n	10000b58 <best_effort_wfe_or_timeout+0x114>
10000aa8:	881a      	ldrh	r2, [r3, #0]
10000aaa:	8042      	strh	r2, [r0, #2]
10000aac:	6902      	ldr	r2, [r0, #16]
10000aae:	4694      	mov	ip, r2
10000ab0:	f3bf 8f5f 	dmb	sy
10000ab4:	2200      	movs	r2, #0
10000ab6:	4661      	mov	r1, ip
10000ab8:	600a      	str	r2, [r1, #0]
10000aba:	f388 8810 	msr	PRIMASK, r8
10000abe:	615a      	str	r2, [r3, #20]
10000ac0:	885a      	ldrh	r2, [r3, #2]
10000ac2:	492b      	ldr	r1, [pc, #172]	@ (10000b70 <best_effort_wfe_or_timeout+0x12c>)
10000ac4:	3201      	adds	r2, #1
10000ac6:	0452      	lsls	r2, r2, #17
10000ac8:	0c52      	lsrs	r2, r2, #17
10000aca:	6119      	str	r1, [r3, #16]
10000acc:	609c      	str	r4, [r3, #8]
10000ace:	60dd      	str	r5, [r3, #12]
10000ad0:	1c11      	adds	r1, r2, #0
10000ad2:	2a00      	cmp	r2, #0
10000ad4:	d100      	bne.n	10000ad8 <best_effort_wfe_or_timeout+0x94>
10000ad6:	2101      	movs	r1, #1
10000ad8:	b28a      	uxth	r2, r1
10000ada:	8059      	strh	r1, [r3, #2]
10000adc:	0439      	lsls	r1, r7, #16
10000ade:	4311      	orrs	r1, r2
10000ae0:	6902      	ldr	r2, [r0, #16]
10000ae2:	4694      	mov	ip, r2
10000ae4:	f3ef 8810 	mrs	r8, PRIMASK
10000ae8:	b672      	cpsid	i
10000aea:	4662      	mov	r2, ip
10000aec:	6812      	ldr	r2, [r2, #0]
10000aee:	2a00      	cmp	r2, #0
10000af0:	d0fb      	beq.n	10000aea <best_effort_wfe_or_timeout+0xa6>
10000af2:	f3bf 8f5f 	dmb	sy
10000af6:	8882      	ldrh	r2, [r0, #4]
10000af8:	801a      	strh	r2, [r3, #0]
10000afa:	6903      	ldr	r3, [r0, #16]
10000afc:	8087      	strh	r7, [r0, #4]
10000afe:	f3bf 8f5f 	dmb	sy
10000b02:	2200      	movs	r2, #0
10000b04:	601a      	str	r2, [r3, #0]
10000b06:	f388 8810 	msr	PRIMASK, r8
10000b0a:	4f1a      	ldr	r7, [pc, #104]	@ (10000b74 <best_effort_wfe_or_timeout+0x130>)
10000b0c:	7803      	ldrb	r3, [r0, #0]
10000b0e:	46bc      	mov	ip, r7
10000b10:	3201      	adds	r2, #1
10000b12:	409a      	lsls	r2, r3
10000b14:	68c3      	ldr	r3, [r0, #12]
10000b16:	4463      	add	r3, ip
10000b18:	601a      	str	r2, [r3, #0]
10000b1a:	bf40      	sev
10000b1c:	bf20      	wfe
10000b1e:	4b12      	ldr	r3, [pc, #72]	@ (10000b68 <best_effort_wfe_or_timeout+0x124>)
10000b20:	6a5a      	ldr	r2, [r3, #36]	@ 0x24
10000b22:	42b2      	cmp	r2, r6
10000b24:	d212      	bcs.n	10000b4c <best_effort_wfe_or_timeout+0x108>
10000b26:	bf20      	wfe
10000b28:	f7ff ff52 	bl	100009d0 <alarm_pool_cancel_alarm>
10000b2c:	4a0e      	ldr	r2, [pc, #56]	@ (10000b68 <best_effort_wfe_or_timeout+0x124>)
10000b2e:	2000      	movs	r0, #0
10000b30:	6a53      	ldr	r3, [r2, #36]	@ 0x24
10000b32:	42b3      	cmp	r3, r6
10000b34:	d200      	bcs.n	10000b38 <best_effort_wfe_or_timeout+0xf4>
10000b36:	e799      	b.n	10000a6c <best_effort_wfe_or_timeout+0x28>
10000b38:	6a92      	ldr	r2, [r2, #40]	@ 0x28
10000b3a:	3001      	adds	r0, #1
10000b3c:	42a2      	cmp	r2, r4
10000b3e:	d300      	bcc.n	10000b42 <best_effort_wfe_or_timeout+0xfe>
10000b40:	e794      	b.n	10000a6c <best_effort_wfe_or_timeout+0x28>
10000b42:	1b5b      	subs	r3, r3, r5
10000b44:	1e5a      	subs	r2, r3, #1
10000b46:	4193      	sbcs	r3, r2
10000b48:	b2d8      	uxtb	r0, r3
10000b4a:	e78f      	b.n	10000a6c <best_effort_wfe_or_timeout+0x28>
10000b4c:	6a9b      	ldr	r3, [r3, #40]	@ 0x28
10000b4e:	42a3      	cmp	r3, r4
10000b50:	d2ea      	bcs.n	10000b28 <best_effort_wfe_or_timeout+0xe4>
10000b52:	42b2      	cmp	r2, r6
10000b54:	d1e8      	bne.n	10000b28 <best_effort_wfe_or_timeout+0xe4>
10000b56:	e7e6      	b.n	10000b26 <best_effort_wfe_or_timeout+0xe2>
10000b58:	6903      	ldr	r3, [r0, #16]
10000b5a:	f3bf 8f5f 	dmb	sy
10000b5e:	2200      	movs	r2, #0
10000b60:	601a      	str	r2, [r3, #0]
10000b62:	f388 8810 	msr	PRIMASK, r8
10000b66:	e7e1      	b.n	10000b2c <best_effort_wfe_or_timeout+0xe8>
10000b68:	40054000 	.word	0x40054000
10000b6c:	20000254 	.word	0x20000254
10000b70:	100005e1 	.word	0x100005e1
10000b74:	0000203c 	.word	0x0000203c

10000b78 <timer_hardware_alarm_claim>:
10000b78:	b510      	push	{r4, lr}
10000b7a:	4a02      	ldr	r2, [pc, #8]	@ (10000b84 <timer_hardware_alarm_claim+0xc>)
10000b7c:	4802      	ldr	r0, [pc, #8]	@ (10000b88 <timer_hardware_alarm_claim+0x10>)
10000b7e:	f7ff fcf3 	bl	10000568 <hw_claim_or_assert>
10000b82:	bd10      	pop	{r4, pc}
10000b84:	10001e80 	.word	0x10001e80
10000b88:	20000688 	.word	0x20000688

10000b8c <timer_time_us_64>:
10000b8c:	0003      	movs	r3, r0
10000b8e:	6a41      	ldr	r1, [r0, #36]	@ 0x24
10000b90:	000a      	movs	r2, r1
10000b92:	6a98      	ldr	r0, [r3, #40]	@ 0x28
10000b94:	6a59      	ldr	r1, [r3, #36]	@ 0x24
10000b96:	428a      	cmp	r2, r1
10000b98:	d1fa      	bne.n	10000b90 <timer_time_us_64+0x4>
10000b9a:	4770      	bx	lr

10000b9c <time_us_64>:
10000b9c:	4b03      	ldr	r3, [pc, #12]	@ (10000bac <time_us_64+0x10>)
10000b9e:	6a59      	ldr	r1, [r3, #36]	@ 0x24
10000ba0:	000a      	movs	r2, r1
10000ba2:	6a98      	ldr	r0, [r3, #40]	@ 0x28
10000ba4:	6a59      	ldr	r1, [r3, #36]	@ 0x24
10000ba6:	4291      	cmp	r1, r2
10000ba8:	d1fa      	bne.n	10000ba0 <time_us_64+0x4>
10000baa:	4770      	bx	lr
10000bac:	40054000 	.word	0x40054000

10000bb0 <busy_wait_us>:
10000bb0:	b570      	push	{r4, r5, r6, lr}
10000bb2:	0004      	movs	r4, r0
10000bb4:	000d      	movs	r5, r1
10000bb6:	4a17      	ldr	r2, [pc, #92]	@ (10000c14 <busy_wait_us+0x64>)
10000bb8:	6a53      	ldr	r3, [r2, #36]	@ 0x24
10000bba:	0019      	movs	r1, r3
10000bbc:	6a96      	ldr	r6, [r2, #40]	@ 0x28
10000bbe:	6a53      	ldr	r3, [r2, #36]	@ 0x24
10000bc0:	428b      	cmp	r3, r1
10000bc2:	d1fa      	bne.n	10000bba <busy_wait_us+0xa>
10000bc4:	0030      	movs	r0, r6
10000bc6:	0019      	movs	r1, r3
10000bc8:	1824      	adds	r4, r4, r0
10000bca:	414d      	adcs	r5, r1
10000bcc:	42ab      	cmp	r3, r5
10000bce:	d816      	bhi.n	10000bfe <busy_wait_us+0x4e>
10000bd0:	d013      	beq.n	10000bfa <busy_wait_us+0x4a>
10000bd2:	4a10      	ldr	r2, [pc, #64]	@ (10000c14 <busy_wait_us+0x64>)
10000bd4:	002b      	movs	r3, r5
10000bd6:	6a52      	ldr	r2, [r2, #36]	@ 0x24
10000bd8:	4295      	cmp	r5, r2
10000bda:	d903      	bls.n	10000be4 <busy_wait_us+0x34>
10000bdc:	490d      	ldr	r1, [pc, #52]	@ (10000c14 <busy_wait_us+0x64>)
10000bde:	6a4a      	ldr	r2, [r1, #36]	@ 0x24
10000be0:	429a      	cmp	r2, r3
10000be2:	d3fc      	bcc.n	10000bde <busy_wait_us+0x2e>
10000be4:	429a      	cmp	r2, r3
10000be6:	d107      	bne.n	10000bf8 <busy_wait_us+0x48>
10000be8:	4a0a      	ldr	r2, [pc, #40]	@ (10000c14 <busy_wait_us+0x64>)
10000bea:	e002      	b.n	10000bf2 <busy_wait_us+0x42>
10000bec:	6a51      	ldr	r1, [r2, #36]	@ 0x24
10000bee:	4299      	cmp	r1, r3
10000bf0:	d102      	bne.n	10000bf8 <busy_wait_us+0x48>
10000bf2:	6a91      	ldr	r1, [r2, #40]	@ 0x28
10000bf4:	42a1      	cmp	r1, r4
10000bf6:	d3f9      	bcc.n	10000bec <busy_wait_us+0x3c>
10000bf8:	bd70      	pop	{r4, r5, r6, pc}
10000bfa:	42a6      	cmp	r6, r4
10000bfc:	d9e9      	bls.n	10000bd2 <busy_wait_us+0x22>
10000bfe:	4b05      	ldr	r3, [pc, #20]	@ (10000c14 <busy_wait_us+0x64>)
10000c00:	6a5b      	ldr	r3, [r3, #36]	@ 0x24
10000c02:	001c      	movs	r4, r3
10000c04:	1c5a      	adds	r2, r3, #1
10000c06:	d0ef      	beq.n	10000be8 <busy_wait_us+0x38>
10000c08:	2301      	movs	r3, #1
10000c0a:	2401      	movs	r4, #1
10000c0c:	4264      	negs	r4, r4
10000c0e:	17e5      	asrs	r5, r4, #31
10000c10:	425b      	negs	r3, r3
10000c12:	e7e3      	b.n	10000bdc <busy_wait_us+0x2c>
10000c14:	40054000 	.word	0x40054000

10000c18 <runtime_init_per_core_irq_priorities>:
10000c18:	4b05      	ldr	r3, [pc, #20]	@ (10000c30 <runtime_init_per_core_irq_priorities+0x18>)
10000c1a:	4a06      	ldr	r2, [pc, #24]	@ (10000c34 <runtime_init_per_core_irq_priorities+0x1c>)
10000c1c:	6013      	str	r3, [r2, #0]
10000c1e:	4a06      	ldr	r2, [pc, #24]	@ (10000c38 <runtime_init_per_core_irq_priorities+0x20>)
10000c20:	6013      	str	r3, [r2, #0]
10000c22:	6053      	str	r3, [r2, #4]
10000c24:	6093      	str	r3, [r2, #8]
10000c26:	60d3      	str	r3, [r2, #12]
10000c28:	6113      	str	r3, [r2, #16]
10000c2a:	6153      	str	r3, [r2, #20]
10000c2c:	6193      	str	r3, [r2, #24]
10000c2e:	4770      	bx	lr
10000c30:	80808080 	.word	0x80808080
10000c34:	e000e400 	.word	0xe000e400
10000c38:	e000e404 	.word	0xe000e404

10000c3c <irq_set_enabled>:
10000c3c:	231f      	movs	r3, #31
10000c3e:	4018      	ands	r0, r3
10000c40:	3b1e      	subs	r3, #30
10000c42:	4083      	lsls	r3, r0
10000c44:	2900      	cmp	r1, #0
10000c46:	d005      	beq.n	10000c54 <irq_set_enabled+0x18>
10000c48:	21c0      	movs	r1, #192	@ 0xc0
10000c4a:	4a04      	ldr	r2, [pc, #16]	@ (10000c5c <irq_set_enabled+0x20>)
10000c4c:	0049      	lsls	r1, r1, #1
10000c4e:	5053      	str	r3, [r2, r1]
10000c50:	6013      	str	r3, [r2, #0]
10000c52:	4770      	bx	lr
10000c54:	2280      	movs	r2, #128	@ 0x80
10000c56:	4901      	ldr	r1, [pc, #4]	@ (10000c5c <irq_set_enabled+0x20>)
10000c58:	508b      	str	r3, [r1, r2]
10000c5a:	e7fa      	b.n	10000c52 <irq_set_enabled+0x16>
10000c5c:	e000e100 	.word	0xe000e100

10000c60 <irq_set_exclusive_handler>:
10000c60:	b570      	push	{r4, r5, r6, lr}
10000c62:	000d      	movs	r5, r1
10000c64:	f3ef 8610 	mrs	r6, PRIMASK
10000c68:	b672      	cpsid	i
10000c6a:	4a0f      	ldr	r2, [pc, #60]	@ (10000ca8 <irq_set_exclusive_handler+0x48>)
10000c6c:	6813      	ldr	r3, [r2, #0]
10000c6e:	2b00      	cmp	r3, #0
10000c70:	d0fc      	beq.n	10000c6c <irq_set_exclusive_handler+0xc>
10000c72:	f3bf 8f5f 	dmb	sy
10000c76:	4b0d      	ldr	r3, [pc, #52]	@ (10000cac <irq_set_exclusive_handler+0x4c>)
10000c78:	3010      	adds	r0, #16
10000c7a:	689b      	ldr	r3, [r3, #8]
10000c7c:	0084      	lsls	r4, r0, #2
10000c7e:	591b      	ldr	r3, [r3, r4]
10000c80:	4a0b      	ldr	r2, [pc, #44]	@ (10000cb0 <irq_set_exclusive_handler+0x50>)
10000c82:	4293      	cmp	r3, r2
10000c84:	d003      	beq.n	10000c8e <irq_set_exclusive_handler+0x2e>
10000c86:	429d      	cmp	r5, r3
10000c88:	d001      	beq.n	10000c8e <irq_set_exclusive_handler+0x2e>
10000c8a:	f000 fbf9 	bl	10001480 <hard_assertion_failure>
10000c8e:	4b07      	ldr	r3, [pc, #28]	@ (10000cac <irq_set_exclusive_handler+0x4c>)
10000c90:	689b      	ldr	r3, [r3, #8]
10000c92:	511d      	str	r5, [r3, r4]
10000c94:	f3bf 8f5f 	dmb	sy
10000c98:	f3bf 8f5f 	dmb	sy
10000c9c:	2200      	movs	r2, #0
10000c9e:	4b02      	ldr	r3, [pc, #8]	@ (10000ca8 <irq_set_exclusive_handler+0x48>)
10000ca0:	601a      	str	r2, [r3, #0]
10000ca2:	f386 8810 	msr	PRIMASK, r6
10000ca6:	bd70      	pop	{r4, r5, r6, pc}
10000ca8:	d0000124 	.word	0xd0000124
10000cac:	e000ed00 	.word	0xe000ed00
10000cb0:	100001cd 	.word	0x100001cd

10000cb4 <irq_remove_handler>:
10000cb4:	b5f0      	push	{r4, r5, r6, r7, lr}
10000cb6:	46de      	mov	lr, fp
10000cb8:	4657      	mov	r7, sl
10000cba:	464e      	mov	r6, r9
10000cbc:	4645      	mov	r5, r8
10000cbe:	b5e0      	push	{r5, r6, r7, lr}
10000cc0:	000c      	movs	r4, r1
10000cc2:	b083      	sub	sp, #12
10000cc4:	f3ef 8810 	mrs	r8, PRIMASK
10000cc8:	b672      	cpsid	i
10000cca:	4a63      	ldr	r2, [pc, #396]	@ (10000e58 <irq_remove_handler+0x1a4>)
10000ccc:	6813      	ldr	r3, [r2, #0]
10000cce:	2b00      	cmp	r3, #0
10000cd0:	d0fc      	beq.n	10000ccc <irq_remove_handler+0x18>
10000cd2:	f3bf 8f5f 	dmb	sy
10000cd6:	4b61      	ldr	r3, [pc, #388]	@ (10000e5c <irq_remove_handler+0x1a8>)
10000cd8:	4961      	ldr	r1, [pc, #388]	@ (10000e60 <irq_remove_handler+0x1ac>)
10000cda:	689a      	ldr	r2, [r3, #8]
10000cdc:	0003      	movs	r3, r0
10000cde:	3310      	adds	r3, #16
10000ce0:	009f      	lsls	r7, r3, #2
10000ce2:	59d5      	ldr	r5, [r2, r7]
10000ce4:	9300      	str	r3, [sp, #0]
10000ce6:	428d      	cmp	r5, r1
10000ce8:	d043      	beq.n	10000d72 <irq_remove_handler+0xbe>
10000cea:	42a5      	cmp	r5, r4
10000cec:	d054      	beq.n	10000d98 <irq_remove_handler+0xe4>
10000cee:	4e5d      	ldr	r6, [pc, #372]	@ (10000e64 <irq_remove_handler+0x1b0>)
10000cf0:	1baa      	subs	r2, r5, r6
10000cf2:	2a2f      	cmp	r2, #47	@ 0x2f
10000cf4:	d83d      	bhi.n	10000d72 <irq_remove_handler+0xbe>
10000cf6:	4b5c      	ldr	r3, [pc, #368]	@ (10000e68 <irq_remove_handler+0x1b4>)
10000cf8:	469c      	mov	ip, r3
10000cfa:	681b      	ldr	r3, [r3, #0]
10000cfc:	469a      	mov	sl, r3
10000cfe:	2301      	movs	r3, #1
10000d00:	001a      	movs	r2, r3
10000d02:	4699      	mov	r9, r3
10000d04:	4082      	lsls	r2, r0
10000d06:	4653      	mov	r3, sl
10000d08:	4013      	ands	r3, r2
10000d0a:	221f      	movs	r2, #31
10000d0c:	9301      	str	r3, [sp, #4]
10000d0e:	464b      	mov	r3, r9
10000d10:	4002      	ands	r2, r0
10000d12:	4093      	lsls	r3, r2
10000d14:	469a      	mov	sl, r3
10000d16:	2280      	movs	r2, #128	@ 0x80
10000d18:	4663      	mov	r3, ip
10000d1a:	4650      	mov	r0, sl
10000d1c:	5098      	str	r0, [r3, r2]
10000d1e:	f3bf 8f5f 	dmb	sy
10000d22:	f3ef 8305 	mrs	r3, IPSR
10000d26:	469b      	mov	fp, r3
10000d28:	2b00      	cmp	r3, #0
10000d2a:	d037      	beq.n	10000d9c <irq_remove_handler+0xe8>
10000d2c:	9b00      	ldr	r3, [sp, #0]
10000d2e:	455b      	cmp	r3, fp
10000d30:	d001      	beq.n	10000d36 <irq_remove_handler+0x82>
10000d32:	f000 fba5 	bl	10001480 <hard_assertion_failure>
10000d36:	002a      	movs	r2, r5
10000d38:	464b      	mov	r3, r9
10000d3a:	439a      	bics	r2, r3
10000d3c:	6890      	ldr	r0, [r2, #8]
10000d3e:	4284      	cmp	r4, r0
10000d40:	d108      	bne.n	10000d54 <irq_remove_handler+0xa0>
10000d42:	e077      	b.n	10000e34 <irq_remove_handler+0x180>
10000d44:	004b      	lsls	r3, r1, #1
10000d46:	185b      	adds	r3, r3, r1
10000d48:	009b      	lsls	r3, r3, #2
10000d4a:	18f3      	adds	r3, r6, r3
10000d4c:	6898      	ldr	r0, [r3, #8]
10000d4e:	4284      	cmp	r4, r0
10000d50:	d036      	beq.n	10000dc0 <irq_remove_handler+0x10c>
10000d52:	001a      	movs	r2, r3
10000d54:	2106      	movs	r1, #6
10000d56:	5651      	ldrsb	r1, [r2, r1]
10000d58:	2900      	cmp	r1, #0
10000d5a:	daf3      	bge.n	10000d44 <irq_remove_handler+0x90>
10000d5c:	4284      	cmp	r4, r0
10000d5e:	d055      	beq.n	10000e0c <irq_remove_handler+0x158>
10000d60:	9b01      	ldr	r3, [sp, #4]
10000d62:	2b00      	cmp	r3, #0
10000d64:	d027      	beq.n	10000db6 <irq_remove_handler+0x102>
10000d66:	22c0      	movs	r2, #192	@ 0xc0
10000d68:	4651      	mov	r1, sl
10000d6a:	4b3f      	ldr	r3, [pc, #252]	@ (10000e68 <irq_remove_handler+0x1b4>)
10000d6c:	0052      	lsls	r2, r2, #1
10000d6e:	5099      	str	r1, [r3, r2]
10000d70:	6019      	str	r1, [r3, #0]
10000d72:	4b3a      	ldr	r3, [pc, #232]	@ (10000e5c <irq_remove_handler+0x1a8>)
10000d74:	689b      	ldr	r3, [r3, #8]
10000d76:	51dd      	str	r5, [r3, r7]
10000d78:	f3bf 8f5f 	dmb	sy
10000d7c:	f3bf 8f5f 	dmb	sy
10000d80:	2200      	movs	r2, #0
10000d82:	4b35      	ldr	r3, [pc, #212]	@ (10000e58 <irq_remove_handler+0x1a4>)
10000d84:	601a      	str	r2, [r3, #0]
10000d86:	f388 8810 	msr	PRIMASK, r8
10000d8a:	b003      	add	sp, #12
10000d8c:	bcf0      	pop	{r4, r5, r6, r7}
10000d8e:	46bb      	mov	fp, r7
10000d90:	46b2      	mov	sl, r6
10000d92:	46a9      	mov	r9, r5
10000d94:	46a0      	mov	r8, r4
10000d96:	bdf0      	pop	{r4, r5, r6, r7, pc}
10000d98:	000d      	movs	r5, r1
10000d9a:	e7ea      	b.n	10000d72 <irq_remove_handler+0xbe>
10000d9c:	002a      	movs	r2, r5
10000d9e:	464b      	mov	r3, r9
10000da0:	439a      	bics	r2, r3
10000da2:	6890      	ldr	r0, [r2, #8]
10000da4:	4284      	cmp	r4, r0
10000da6:	d1d5      	bne.n	10000d54 <irq_remove_handler+0xa0>
10000da8:	2006      	movs	r0, #6
10000daa:	5610      	ldrsb	r0, [r2, r0]
10000dac:	0013      	movs	r3, r2
10000dae:	2800      	cmp	r0, #0
10000db0:	da0a      	bge.n	10000dc8 <irq_remove_handler+0x114>
10000db2:	000d      	movs	r5, r1
10000db4:	e032      	b.n	10000e1c <irq_remove_handler+0x168>
10000db6:	2380      	movs	r3, #128	@ 0x80
10000db8:	4651      	mov	r1, sl
10000dba:	4a2b      	ldr	r2, [pc, #172]	@ (10000e68 <irq_remove_handler+0x1b4>)
10000dbc:	50d1      	str	r1, [r2, r3]
10000dbe:	e7d8      	b.n	10000d72 <irq_remove_handler+0xbe>
10000dc0:	2006      	movs	r0, #6
10000dc2:	5618      	ldrsb	r0, [r3, r0]
10000dc4:	2800      	cmp	r0, #0
10000dc6:	db22      	blt.n	10000e0e <irq_remove_handler+0x15a>
10000dc8:	0042      	lsls	r2, r0, #1
10000dca:	1811      	adds	r1, r2, r0
10000dcc:	0089      	lsls	r1, r1, #2
10000dce:	1874      	adds	r4, r6, r1
10000dd0:	4689      	mov	r9, r1
10000dd2:	68a1      	ldr	r1, [r4, #8]
10000dd4:	6099      	str	r1, [r3, #8]
10000dd6:	79e1      	ldrb	r1, [r4, #7]
10000dd8:	71d9      	strb	r1, [r3, #7]
10000dda:	2106      	movs	r1, #6
10000ddc:	5661      	ldrsb	r1, [r4, r1]
10000dde:	7199      	strb	r1, [r3, #6]
10000de0:	2900      	cmp	r1, #0
10000de2:	db25      	blt.n	10000e30 <irq_remove_handler+0x17c>
10000de4:	88a4      	ldrh	r4, [r4, #4]
10000de6:	1af1      	subs	r1, r6, r3
10000de8:	0564      	lsls	r4, r4, #21
10000dea:	1524      	asrs	r4, r4, #20
10000dec:	444c      	add	r4, r9
10000dee:	1909      	adds	r1, r1, r4
10000df0:	24e0      	movs	r4, #224	@ 0xe0
10000df2:	0509      	lsls	r1, r1, #20
10000df4:	0d49      	lsrs	r1, r1, #21
10000df6:	0224      	lsls	r4, r4, #8
10000df8:	4321      	orrs	r1, r4
10000dfa:	8099      	strh	r1, [r3, #4]
10000dfc:	1813      	adds	r3, r2, r0
10000dfe:	4a1b      	ldr	r2, [pc, #108]	@ (10000e6c <irq_remove_handler+0x1b8>)
10000e00:	009b      	lsls	r3, r3, #2
10000e02:	7811      	ldrb	r1, [r2, #0]
10000e04:	18f3      	adds	r3, r6, r3
10000e06:	7199      	strb	r1, [r3, #6]
10000e08:	7010      	strb	r0, [r2, #0]
10000e0a:	e7a9      	b.n	10000d60 <irq_remove_handler+0xac>
10000e0c:	0013      	movs	r3, r2
10000e0e:	4659      	mov	r1, fp
10000e10:	2900      	cmp	r1, #0
10000e12:	d114      	bne.n	10000e3e <irq_remove_handler+0x18a>
10000e14:	31ff      	adds	r1, #255	@ 0xff
10000e16:	7191      	strb	r1, [r2, #6]
10000e18:	4915      	ldr	r1, [pc, #84]	@ (10000e70 <irq_remove_handler+0x1bc>)
10000e1a:	8091      	strh	r1, [r2, #4]
10000e1c:	4913      	ldr	r1, [pc, #76]	@ (10000e6c <irq_remove_handler+0x1b8>)
10000e1e:	780a      	ldrb	r2, [r1, #0]
10000e20:	719a      	strb	r2, [r3, #6]
10000e22:	4a14      	ldr	r2, [pc, #80]	@ (10000e74 <irq_remove_handler+0x1c0>)
10000e24:	1b9b      	subs	r3, r3, r6
10000e26:	415b      	adcs	r3, r3
10000e28:	435a      	muls	r2, r3
10000e2a:	0d12      	lsrs	r2, r2, #20
10000e2c:	700a      	strb	r2, [r1, #0]
10000e2e:	e797      	b.n	10000d60 <irq_remove_handler+0xac>
10000e30:	4911      	ldr	r1, [pc, #68]	@ (10000e78 <irq_remove_handler+0x1c4>)
10000e32:	e7e2      	b.n	10000dfa <irq_remove_handler+0x146>
10000e34:	2006      	movs	r0, #6
10000e36:	5610      	ldrsb	r0, [r2, r0]
10000e38:	0013      	movs	r3, r2
10000e3a:	2800      	cmp	r0, #0
10000e3c:	dac4      	bge.n	10000dc8 <irq_remove_handler+0x114>
10000e3e:	4a0f      	ldr	r2, [pc, #60]	@ (10000e7c <irq_remove_handler+0x1c8>)
10000e40:	490f      	ldr	r1, [pc, #60]	@ (10000e80 <irq_remove_handler+0x1cc>)
10000e42:	1ad2      	subs	r2, r2, r3
10000e44:	3a08      	subs	r2, #8
10000e46:	0250      	lsls	r0, r2, #9
10000e48:	0d40      	lsrs	r0, r0, #21
10000e4a:	4301      	orrs	r1, r0
10000e4c:	8099      	strh	r1, [r3, #4]
10000e4e:	490d      	ldr	r1, [pc, #52]	@ (10000e84 <irq_remove_handler+0x1d0>)
10000e50:	0852      	lsrs	r2, r2, #1
10000e52:	430a      	orrs	r2, r1
10000e54:	80da      	strh	r2, [r3, #6]
10000e56:	e783      	b.n	10000d60 <irq_remove_handler+0xac>
10000e58:	d0000124 	.word	0xd0000124
10000e5c:	e000ed00 	.word	0xe000ed00
10000e60:	100001cd 	.word	0x100001cd
10000e64:	2000026c 	.word	0x2000026c
10000e68:	e000e100 	.word	0xe000e100
10000e6c:	20000708 	.word	0x20000708
10000e70:	ffffbd01 	.word	0xffffbd01
10000e74:	0000aaaa 	.word	0x0000aaaa
10000e78:	0000bd01 	.word	0x0000bd01
10000e7c:	200002a6 	.word	0x200002a6
10000e80:	fffff000 	.word	0xfffff000
10000e84:	fffff800 	.word	0xfffff800

10000e88 <irq_add_tail_to_free_list>:
10000e88:	b570      	push	{r4, r5, r6, lr}
10000e8a:	2401      	movs	r4, #1
10000e8c:	4304      	orrs	r4, r0
10000e8e:	f3ef 8105 	mrs	r1, IPSR
10000e92:	f3ef 8c10 	mrs	ip, PRIMASK
10000e96:	b672      	cpsid	i
10000e98:	4a21      	ldr	r2, [pc, #132]	@ (10000f20 <irq_add_tail_to_free_list+0x98>)
10000e9a:	6813      	ldr	r3, [r2, #0]
10000e9c:	2b00      	cmp	r3, #0
10000e9e:	d0fc      	beq.n	10000e9a <irq_add_tail_to_free_list+0x12>
10000ea0:	f3bf 8f5f 	dmb	sy
10000ea4:	4b1f      	ldr	r3, [pc, #124]	@ (10000f24 <irq_add_tail_to_free_list+0x9c>)
10000ea6:	0005      	movs	r5, r0
10000ea8:	4a1f      	ldr	r2, [pc, #124]	@ (10000f28 <irq_add_tail_to_free_list+0xa0>)
10000eaa:	1aed      	subs	r5, r5, r3
10000eac:	416d      	adcs	r5, r5
10000eae:	436a      	muls	r2, r5
10000eb0:	0d12      	lsrs	r2, r2, #20
10000eb2:	4d1e      	ldr	r5, [pc, #120]	@ (10000f2c <irq_add_tail_to_free_list+0xa4>)
10000eb4:	0089      	lsls	r1, r1, #2
10000eb6:	68ae      	ldr	r6, [r5, #8]
10000eb8:	b252      	sxtb	r2, r2
10000eba:	5876      	ldr	r6, [r6, r1]
10000ebc:	42a6      	cmp	r6, r4
10000ebe:	d01c      	beq.n	10000efa <irq_add_tail_to_free_list+0x72>
10000ec0:	2106      	movs	r1, #6
10000ec2:	5659      	ldrsb	r1, [r3, r1]
10000ec4:	4291      	cmp	r1, r2
10000ec6:	d01c      	beq.n	10000f02 <irq_add_tail_to_free_list+0x7a>
10000ec8:	2112      	movs	r1, #18
10000eca:	5659      	ldrsb	r1, [r3, r1]
10000ecc:	4291      	cmp	r1, r2
10000ece:	d022      	beq.n	10000f16 <irq_add_tail_to_free_list+0x8e>
10000ed0:	211e      	movs	r1, #30
10000ed2:	5659      	ldrsb	r1, [r3, r1]
10000ed4:	4291      	cmp	r1, r2
10000ed6:	d020      	beq.n	10000f1a <irq_add_tail_to_free_list+0x92>
10000ed8:	212a      	movs	r1, #42	@ 0x2a
10000eda:	5659      	ldrsb	r1, [r3, r1]
10000edc:	2403      	movs	r4, #3
10000ede:	4291      	cmp	r1, r2
10000ee0:	d010      	beq.n	10000f04 <irq_add_tail_to_free_list+0x7c>
10000ee2:	4b13      	ldr	r3, [pc, #76]	@ (10000f30 <irq_add_tail_to_free_list+0xa8>)
10000ee4:	7819      	ldrb	r1, [r3, #0]
10000ee6:	701a      	strb	r2, [r3, #0]
10000ee8:	7181      	strb	r1, [r0, #6]
10000eea:	f3bf 8f5f 	dmb	sy
10000eee:	2200      	movs	r2, #0
10000ef0:	4b0b      	ldr	r3, [pc, #44]	@ (10000f20 <irq_add_tail_to_free_list+0x98>)
10000ef2:	601a      	str	r2, [r3, #0]
10000ef4:	f38c 8810 	msr	PRIMASK, ip
10000ef8:	bd70      	pop	{r4, r5, r6, pc}
10000efa:	68ab      	ldr	r3, [r5, #8]
10000efc:	4c0d      	ldr	r4, [pc, #52]	@ (10000f34 <irq_add_tail_to_free_list+0xac>)
10000efe:	505c      	str	r4, [r3, r1]
10000f00:	e7ef      	b.n	10000ee2 <irq_add_tail_to_free_list+0x5a>
10000f02:	2400      	movs	r4, #0
10000f04:	0061      	lsls	r1, r4, #1
10000f06:	1909      	adds	r1, r1, r4
10000f08:	0089      	lsls	r1, r1, #2
10000f0a:	185b      	adds	r3, r3, r1
10000f0c:	21ff      	movs	r1, #255	@ 0xff
10000f0e:	7199      	strb	r1, [r3, #6]
10000f10:	4909      	ldr	r1, [pc, #36]	@ (10000f38 <irq_add_tail_to_free_list+0xb0>)
10000f12:	8099      	strh	r1, [r3, #4]
10000f14:	e7e5      	b.n	10000ee2 <irq_add_tail_to_free_list+0x5a>
10000f16:	2401      	movs	r4, #1
10000f18:	e7f4      	b.n	10000f04 <irq_add_tail_to_free_list+0x7c>
10000f1a:	2402      	movs	r4, #2
10000f1c:	e7f2      	b.n	10000f04 <irq_add_tail_to_free_list+0x7c>
10000f1e:	46c0      	nop			@ (mov r8, r8)
10000f20:	d0000124 	.word	0xd0000124
10000f24:	2000026c 	.word	0x2000026c
10000f28:	0000aaaa 	.word	0x0000aaaa
10000f2c:	e000ed00 	.word	0xe000ed00
10000f30:	20000708 	.word	0x20000708
10000f34:	100001cd 	.word	0x100001cd
10000f38:	ffffbd01 	.word	0xffffbd01

10000f3c <lock_init>:
10000f3c:	4b02      	ldr	r3, [pc, #8]	@ (10000f48 <lock_init+0xc>)
10000f3e:	469c      	mov	ip, r3
10000f40:	4461      	add	r1, ip
10000f42:	0089      	lsls	r1, r1, #2
10000f44:	6001      	str	r1, [r0, #0]
10000f46:	4770      	bx	lr
10000f48:	34000040 	.word	0x34000040

10000f4c <runtime_init_mutex>:
10000f4c:	b570      	push	{r4, r5, r6, lr}
10000f4e:	4c11      	ldr	r4, [pc, #68]	@ (10000f94 <runtime_init_mutex+0x48>)
10000f50:	4d11      	ldr	r5, [pc, #68]	@ (10000f98 <runtime_init_mutex+0x4c>)
10000f52:	42ac      	cmp	r4, r5
10000f54:	d20f      	bcs.n	10000f76 <runtime_init_mutex+0x2a>
10000f56:	26ff      	movs	r6, #255	@ 0xff
10000f58:	6823      	ldr	r3, [r4, #0]
10000f5a:	2b00      	cmp	r3, #0
10000f5c:	d00c      	beq.n	10000f78 <runtime_init_mutex+0x2c>
10000f5e:	f7ff fb25 	bl	100005ac <next_striped_spin_lock_num>
10000f62:	0001      	movs	r1, r0
10000f64:	0020      	movs	r0, r4
10000f66:	f7ff ffe9 	bl	10000f3c <lock_init>
10000f6a:	80a6      	strh	r6, [r4, #4]
10000f6c:	f3bf 8f5f 	dmb	sy
10000f70:	3408      	adds	r4, #8
10000f72:	42ac      	cmp	r4, r5
10000f74:	d3f0      	bcc.n	10000f58 <runtime_init_mutex+0xc>
10000f76:	bd70      	pop	{r4, r5, r6, pc}
10000f78:	f7ff fb18 	bl	100005ac <next_striped_spin_lock_num>
10000f7c:	0001      	movs	r1, r0
10000f7e:	0020      	movs	r0, r4
10000f80:	f7ff ffdc 	bl	10000f3c <lock_init>
10000f84:	7126      	strb	r6, [r4, #4]
10000f86:	f3bf 8f5f 	dmb	sy
10000f8a:	3408      	adds	r4, #8
10000f8c:	42ac      	cmp	r4, r5
10000f8e:	d3e3      	bcc.n	10000f58 <runtime_init_mutex+0xc>
10000f90:	e7f1      	b.n	10000f76 <runtime_init_mutex+0x2a>
10000f92:	46c0      	nop			@ (mov r8, r8)
10000f94:	200002f8 	.word	0x200002f8
10000f98:	20000300 	.word	0x20000300

10000f9c <clock_configure_int_divider>:
10000f9c:	b5f8      	push	{r3, r4, r5, r6, r7, lr}
10000f9e:	46de      	mov	lr, fp
10000fa0:	464e      	mov	r6, r9
10000fa2:	4657      	mov	r7, sl
10000fa4:	4645      	mov	r5, r8
10000fa6:	b5e0      	push	{r5, r6, r7, lr}
10000fa8:	468b      	mov	fp, r1
10000faa:	0005      	movs	r5, r0
10000fac:	990a      	ldr	r1, [sp, #40]	@ 0x28
10000fae:	0018      	movs	r0, r3
10000fb0:	0016      	movs	r6, r2
10000fb2:	f000 fb75 	bl	100016a0 <__wrap___aeabi_uidiv>
10000fb6:	9b0a      	ldr	r3, [sp, #40]	@ 0x28
10000fb8:	006c      	lsls	r4, r5, #1
10000fba:	021f      	lsls	r7, r3, #8
10000fbc:	4b32      	ldr	r3, [pc, #200]	@ (10001088 <clock_configure_int_divider+0xec>)
10000fbe:	1964      	adds	r4, r4, r5
10000fc0:	469c      	mov	ip, r3
10000fc2:	00a4      	lsls	r4, r4, #2
10000fc4:	4464      	add	r4, ip
10000fc6:	6863      	ldr	r3, [r4, #4]
10000fc8:	4681      	mov	r9, r0
10000fca:	429f      	cmp	r7, r3
10000fcc:	d900      	bls.n	10000fd0 <clock_configure_int_divider+0x34>
10000fce:	6067      	str	r7, [r4, #4]
10000fd0:	1f2b      	subs	r3, r5, #4
10000fd2:	b2db      	uxtb	r3, r3
10000fd4:	4698      	mov	r8, r3
10000fd6:	2b01      	cmp	r3, #1
10000fd8:	d930      	bls.n	1000103c <clock_configure_int_divider+0xa0>
10000fda:	23c0      	movs	r3, #192	@ 0xc0
10000fdc:	2280      	movs	r2, #128	@ 0x80
10000fde:	019b      	lsls	r3, r3, #6
10000fe0:	18e3      	adds	r3, r4, r3
10000fe2:	0112      	lsls	r2, r2, #4
10000fe4:	601a      	str	r2, [r3, #0]
10000fe6:	4b29      	ldr	r3, [pc, #164]	@ (1000108c <clock_configure_int_divider+0xf0>)
10000fe8:	00ad      	lsls	r5, r5, #2
10000fea:	5959      	ldr	r1, [r3, r5]
10000fec:	469a      	mov	sl, r3
10000fee:	2900      	cmp	r1, #0
10000ff0:	d11b      	bne.n	1000102a <clock_configure_int_divider+0x8e>
10000ff2:	0173      	lsls	r3, r6, #5
10000ff4:	26e0      	movs	r6, #224	@ 0xe0
10000ff6:	6822      	ldr	r2, [r4, #0]
10000ff8:	4053      	eors	r3, r2
10000ffa:	401e      	ands	r6, r3
10000ffc:	2380      	movs	r3, #128	@ 0x80
10000ffe:	4642      	mov	r2, r8
10001000:	015b      	lsls	r3, r3, #5
10001002:	18e3      	adds	r3, r4, r3
10001004:	601e      	str	r6, [r3, #0]
10001006:	2a01      	cmp	r2, #1
10001008:	d930      	bls.n	1000106c <clock_configure_int_divider+0xd0>
1000100a:	2380      	movs	r3, #128	@ 0x80
1000100c:	2280      	movs	r2, #128	@ 0x80
1000100e:	019b      	lsls	r3, r3, #6
10001010:	18e3      	adds	r3, r4, r3
10001012:	0112      	lsls	r2, r2, #4
10001014:	601a      	str	r2, [r3, #0]
10001016:	4653      	mov	r3, sl
10001018:	464a      	mov	r2, r9
1000101a:	6067      	str	r7, [r4, #4]
1000101c:	515a      	str	r2, [r3, r5]
1000101e:	bcf0      	pop	{r4, r5, r6, r7}
10001020:	46bb      	mov	fp, r7
10001022:	46b2      	mov	sl, r6
10001024:	46a9      	mov	r9, r5
10001026:	46a0      	mov	r8, r4
10001028:	bdf8      	pop	{r3, r4, r5, r6, r7, pc}
1000102a:	6958      	ldr	r0, [r3, #20]
1000102c:	f000 fb38 	bl	100016a0 <__wrap___aeabi_uidiv>
10001030:	3001      	adds	r0, #1
10001032:	0043      	lsls	r3, r0, #1
10001034:	181b      	adds	r3, r3, r0
10001036:	3b03      	subs	r3, #3
10001038:	d2fd      	bcs.n	10001036 <clock_configure_int_divider+0x9a>
1000103a:	e7da      	b.n	10000ff2 <clock_configure_int_divider+0x56>
1000103c:	465b      	mov	r3, fp
1000103e:	2b01      	cmp	r3, #1
10001040:	d1cb      	bne.n	10000fda <clock_configure_int_divider+0x3e>
10001042:	23c0      	movs	r3, #192	@ 0xc0
10001044:	2203      	movs	r2, #3
10001046:	019b      	lsls	r3, r3, #6
10001048:	18e3      	adds	r3, r4, r3
1000104a:	601a      	str	r2, [r3, #0]
1000104c:	3a02      	subs	r2, #2
1000104e:	68a3      	ldr	r3, [r4, #8]
10001050:	421a      	tst	r2, r3
10001052:	d0fc      	beq.n	1000104e <clock_configure_int_divider+0xb2>
10001054:	0173      	lsls	r3, r6, #5
10001056:	26e0      	movs	r6, #224	@ 0xe0
10001058:	6822      	ldr	r2, [r4, #0]
1000105a:	00ad      	lsls	r5, r5, #2
1000105c:	4053      	eors	r3, r2
1000105e:	401e      	ands	r6, r3
10001060:	2380      	movs	r3, #128	@ 0x80
10001062:	4a0a      	ldr	r2, [pc, #40]	@ (1000108c <clock_configure_int_divider+0xf0>)
10001064:	015b      	lsls	r3, r3, #5
10001066:	4692      	mov	sl, r2
10001068:	18e3      	adds	r3, r4, r3
1000106a:	601e      	str	r6, [r3, #0]
1000106c:	465a      	mov	r2, fp
1000106e:	6821      	ldr	r1, [r4, #0]
10001070:	4051      	eors	r1, r2
10001072:	2203      	movs	r2, #3
10001074:	400a      	ands	r2, r1
10001076:	601a      	str	r2, [r3, #0]
10001078:	2201      	movs	r2, #1
1000107a:	465b      	mov	r3, fp
1000107c:	409a      	lsls	r2, r3
1000107e:	68a3      	ldr	r3, [r4, #8]
10001080:	421a      	tst	r2, r3
10001082:	d0fc      	beq.n	1000107e <clock_configure_int_divider+0xe2>
10001084:	e7c1      	b.n	1000100a <clock_configure_int_divider+0x6e>
10001086:	46c0      	nop			@ (mov r8, r8)
10001088:	40008000 	.word	0x40008000
1000108c:	2000068c 	.word	0x2000068c

10001090 <clock_configure_undivided>:
10001090:	b5f0      	push	{r4, r5, r6, r7, lr}
10001092:	4646      	mov	r6, r8
10001094:	464f      	mov	r7, r9
10001096:	46d6      	mov	lr, sl
10001098:	b5c0      	push	{r6, r7, lr}
1000109a:	001f      	movs	r7, r3
1000109c:	4b34      	ldr	r3, [pc, #208]	@ (10001170 <clock_configure_undivided+0xe0>)
1000109e:	0044      	lsls	r4, r0, #1
100010a0:	469c      	mov	ip, r3
100010a2:	1824      	adds	r4, r4, r0
100010a4:	00a4      	lsls	r4, r4, #2
100010a6:	4464      	add	r4, ip
100010a8:	6863      	ldr	r3, [r4, #4]
100010aa:	4688      	mov	r8, r1
100010ac:	0016      	movs	r6, r2
100010ae:	2bff      	cmp	r3, #255	@ 0xff
100010b0:	d802      	bhi.n	100010b8 <clock_configure_undivided+0x28>
100010b2:	2380      	movs	r3, #128	@ 0x80
100010b4:	005b      	lsls	r3, r3, #1
100010b6:	6063      	str	r3, [r4, #4]
100010b8:	1f03      	subs	r3, r0, #4
100010ba:	b2db      	uxtb	r3, r3
100010bc:	469a      	mov	sl, r3
100010be:	2b01      	cmp	r3, #1
100010c0:	d930      	bls.n	10001124 <clock_configure_undivided+0x94>
100010c2:	23c0      	movs	r3, #192	@ 0xc0
100010c4:	2280      	movs	r2, #128	@ 0x80
100010c6:	019b      	lsls	r3, r3, #6
100010c8:	18e3      	adds	r3, r4, r3
100010ca:	0112      	lsls	r2, r2, #4
100010cc:	601a      	str	r2, [r3, #0]
100010ce:	4b29      	ldr	r3, [pc, #164]	@ (10001174 <clock_configure_undivided+0xe4>)
100010d0:	0085      	lsls	r5, r0, #2
100010d2:	5959      	ldr	r1, [r3, r5]
100010d4:	4699      	mov	r9, r3
100010d6:	2900      	cmp	r1, #0
100010d8:	d11b      	bne.n	10001112 <clock_configure_undivided+0x82>
100010da:	0173      	lsls	r3, r6, #5
100010dc:	26e0      	movs	r6, #224	@ 0xe0
100010de:	6822      	ldr	r2, [r4, #0]
100010e0:	4053      	eors	r3, r2
100010e2:	401e      	ands	r6, r3
100010e4:	2380      	movs	r3, #128	@ 0x80
100010e6:	4652      	mov	r2, sl
100010e8:	015b      	lsls	r3, r3, #5
100010ea:	18e3      	adds	r3, r4, r3
100010ec:	601e      	str	r6, [r3, #0]
100010ee:	2a01      	cmp	r2, #1
100010f0:	d930      	bls.n	10001154 <clock_configure_undivided+0xc4>
100010f2:	2380      	movs	r3, #128	@ 0x80
100010f4:	2280      	movs	r2, #128	@ 0x80
100010f6:	019b      	lsls	r3, r3, #6
100010f8:	18e3      	adds	r3, r4, r3
100010fa:	0112      	lsls	r2, r2, #4
100010fc:	601a      	str	r2, [r3, #0]
100010fe:	2380      	movs	r3, #128	@ 0x80
10001100:	005b      	lsls	r3, r3, #1
10001102:	6063      	str	r3, [r4, #4]
10001104:	464b      	mov	r3, r9
10001106:	515f      	str	r7, [r3, r5]
10001108:	bce0      	pop	{r5, r6, r7}
1000110a:	46ba      	mov	sl, r7
1000110c:	46b1      	mov	r9, r6
1000110e:	46a8      	mov	r8, r5
10001110:	bdf0      	pop	{r4, r5, r6, r7, pc}
10001112:	6958      	ldr	r0, [r3, #20]
10001114:	f000 fac4 	bl	100016a0 <__wrap___aeabi_uidiv>
10001118:	3001      	adds	r0, #1
1000111a:	0043      	lsls	r3, r0, #1
1000111c:	181b      	adds	r3, r3, r0
1000111e:	3b03      	subs	r3, #3
10001120:	d2fd      	bcs.n	1000111e <clock_configure_undivided+0x8e>
10001122:	e7da      	b.n	100010da <clock_configure_undivided+0x4a>
10001124:	4643      	mov	r3, r8
10001126:	2b01      	cmp	r3, #1
10001128:	d1cb      	bne.n	100010c2 <clock_configure_undivided+0x32>
1000112a:	23c0      	movs	r3, #192	@ 0xc0
1000112c:	2203      	movs	r2, #3
1000112e:	019b      	lsls	r3, r3, #6
10001130:	18e3      	adds	r3, r4, r3
10001132:	601a      	str	r2, [r3, #0]
10001134:	3a02      	subs	r2, #2
10001136:	68a3      	ldr	r3, [r4, #8]
10001138:	421a      	tst	r2, r3
1000113a:	d0fc      	beq.n	10001136 <clock_configure_undivided+0xa6>
1000113c:	0173      	lsls	r3, r6, #5
1000113e:	26e0      	movs	r6, #224	@ 0xe0
10001140:	6822      	ldr	r2, [r4, #0]
10001142:	0085      	lsls	r5, r0, #2
10001144:	4053      	eors	r3, r2
10001146:	401e      	ands	r6, r3
10001148:	2380      	movs	r3, #128	@ 0x80
1000114a:	4a0a      	ldr	r2, [pc, #40]	@ (10001174 <clock_configure_undivided+0xe4>)
1000114c:	015b      	lsls	r3, r3, #5
1000114e:	4691      	mov	r9, r2
10001150:	18e3      	adds	r3, r4, r3
10001152:	601e      	str	r6, [r3, #0]
10001154:	4642      	mov	r2, r8
10001156:	6821      	ldr	r1, [r4, #0]
10001158:	4051      	eors	r1, r2
1000115a:	2203      	movs	r2, #3
1000115c:	400a      	ands	r2, r1
1000115e:	601a      	str	r2, [r3, #0]
10001160:	2301      	movs	r3, #1
10001162:	4642      	mov	r2, r8
10001164:	4093      	lsls	r3, r2
10001166:	68a2      	ldr	r2, [r4, #8]
10001168:	4213      	tst	r3, r2
1000116a:	d0fc      	beq.n	10001166 <clock_configure_undivided+0xd6>
1000116c:	e7c1      	b.n	100010f2 <clock_configure_undivided+0x62>
1000116e:	46c0      	nop			@ (mov r8, r8)
10001170:	40008000 	.word	0x40008000
10001174:	2000068c 	.word	0x2000068c

10001178 <clock_get_hz>:
10001178:	4b01      	ldr	r3, [pc, #4]	@ (10001180 <clock_get_hz+0x8>)
1000117a:	0080      	lsls	r0, r0, #2
1000117c:	58c0      	ldr	r0, [r0, r3]
1000117e:	4770      	bx	lr
10001180:	2000068c 	.word	0x2000068c

10001184 <gpio_set_function>:
10001184:	4a09      	ldr	r2, [pc, #36]	@ (100011ac <gpio_set_function+0x28>)
10001186:	0083      	lsls	r3, r0, #2
10001188:	189a      	adds	r2, r3, r2
1000118a:	b510      	push	{r4, lr}
1000118c:	6814      	ldr	r4, [r2, #0]
1000118e:	2240      	movs	r2, #64	@ 0x40
10001190:	4054      	eors	r4, r2
10001192:	3280      	adds	r2, #128	@ 0x80
10001194:	4022      	ands	r2, r4
10001196:	4c06      	ldr	r4, [pc, #24]	@ (100011b0 <gpio_set_function+0x2c>)
10001198:	00c0      	lsls	r0, r0, #3
1000119a:	46a4      	mov	ip, r4
1000119c:	4463      	add	r3, ip
1000119e:	601a      	str	r2, [r3, #0]
100011a0:	4b04      	ldr	r3, [pc, #16]	@ (100011b4 <gpio_set_function+0x30>)
100011a2:	469c      	mov	ip, r3
100011a4:	4460      	add	r0, ip
100011a6:	6041      	str	r1, [r0, #4]
100011a8:	bd10      	pop	{r4, pc}
100011aa:	46c0      	nop			@ (mov r8, r8)
100011ac:	4001c004 	.word	0x4001c004
100011b0:	4001d004 	.word	0x4001d004
100011b4:	40014000 	.word	0x40014000

100011b8 <gpio_set_pulls>:
100011b8:	4b07      	ldr	r3, [pc, #28]	@ (100011d8 <gpio_set_pulls+0x20>)
100011ba:	0080      	lsls	r0, r0, #2
100011bc:	18c3      	adds	r3, r0, r3
100011be:	681b      	ldr	r3, [r3, #0]
100011c0:	00c9      	lsls	r1, r1, #3
100011c2:	0092      	lsls	r2, r2, #2
100011c4:	430a      	orrs	r2, r1
100011c6:	405a      	eors	r2, r3
100011c8:	230c      	movs	r3, #12
100011ca:	4013      	ands	r3, r2
100011cc:	4a03      	ldr	r2, [pc, #12]	@ (100011dc <gpio_set_pulls+0x24>)
100011ce:	4694      	mov	ip, r2
100011d0:	4460      	add	r0, ip
100011d2:	6003      	str	r3, [r0, #0]
100011d4:	4770      	bx	lr
100011d6:	46c0      	nop			@ (mov r8, r8)
100011d8:	4001c004 	.word	0x4001c004
100011dc:	4001d004 	.word	0x4001d004

100011e0 <gpio_set_input_enabled>:
100011e0:	0080      	lsls	r0, r0, #2
100011e2:	2900      	cmp	r1, #0
100011e4:	d005      	beq.n	100011f2 <gpio_set_input_enabled+0x12>
100011e6:	4b06      	ldr	r3, [pc, #24]	@ (10001200 <gpio_set_input_enabled+0x20>)
100011e8:	469c      	mov	ip, r3
100011ea:	2340      	movs	r3, #64	@ 0x40
100011ec:	4460      	add	r0, ip
100011ee:	6003      	str	r3, [r0, #0]
100011f0:	4770      	bx	lr
100011f2:	4b04      	ldr	r3, [pc, #16]	@ (10001204 <gpio_set_input_enabled+0x24>)
100011f4:	469c      	mov	ip, r3
100011f6:	2340      	movs	r3, #64	@ 0x40
100011f8:	4460      	add	r0, ip
100011fa:	6003      	str	r3, [r0, #0]
100011fc:	e7f8      	b.n	100011f0 <gpio_set_input_enabled+0x10>
100011fe:	46c0      	nop			@ (mov r8, r8)
10001200:	4001e004 	.word	0x4001e004
10001204:	4001f004 	.word	0x4001f004

10001208 <gpio_init>:
10001208:	2301      	movs	r3, #1
1000120a:	22d0      	movs	r2, #208	@ 0xd0
1000120c:	4083      	lsls	r3, r0
1000120e:	0612      	lsls	r2, r2, #24
10001210:	6293      	str	r3, [r2, #40]	@ 0x28
10001212:	6193      	str	r3, [r2, #24]
10001214:	4a09      	ldr	r2, [pc, #36]	@ (1000123c <gpio_init+0x34>)
10001216:	0083      	lsls	r3, r0, #2
10001218:	189a      	adds	r2, r3, r2
1000121a:	6811      	ldr	r1, [r2, #0]
1000121c:	2240      	movs	r2, #64	@ 0x40
1000121e:	4051      	eors	r1, r2
10001220:	3280      	adds	r2, #128	@ 0x80
10001222:	400a      	ands	r2, r1
10001224:	4906      	ldr	r1, [pc, #24]	@ (10001240 <gpio_init+0x38>)
10001226:	00c0      	lsls	r0, r0, #3
10001228:	468c      	mov	ip, r1
1000122a:	4463      	add	r3, ip
1000122c:	601a      	str	r2, [r3, #0]
1000122e:	4b05      	ldr	r3, [pc, #20]	@ (10001244 <gpio_init+0x3c>)
10001230:	469c      	mov	ip, r3
10001232:	2305      	movs	r3, #5
10001234:	4460      	add	r0, ip
10001236:	6043      	str	r3, [r0, #4]
10001238:	4770      	bx	lr
1000123a:	46c0      	nop			@ (mov r8, r8)
1000123c:	4001c004 	.word	0x4001c004
10001240:	4001d004 	.word	0x4001d004
10001244:	40014000 	.word	0x40014000

10001248 <pll_init>:
10001248:	b5f8      	push	{r3, r4, r5, r6, r7, lr}
1000124a:	0004      	movs	r4, r0
1000124c:	4821      	ldr	r0, [pc, #132]	@ (100012d4 <pll_init+0x8c>)
1000124e:	001e      	movs	r6, r3
10001250:	0017      	movs	r7, r2
10001252:	000d      	movs	r5, r1
10001254:	f000 fa24 	bl	100016a0 <__wrap___aeabi_uidiv>
10001258:	0001      	movs	r1, r0
1000125a:	0038      	movs	r0, r7
1000125c:	f000 fa20 	bl	100016a0 <__wrap___aeabi_uidiv>
10001260:	9b06      	ldr	r3, [sp, #24]
10001262:	0436      	lsls	r6, r6, #16
10001264:	031b      	lsls	r3, r3, #12
10001266:	431e      	orrs	r6, r3
10001268:	6823      	ldr	r3, [r4, #0]
1000126a:	2b00      	cmp	r3, #0
1000126c:	db20      	blt.n	100012b0 <pll_init+0x68>
1000126e:	4b1a      	ldr	r3, [pc, #104]	@ (100012d8 <pll_init+0x90>)
10001270:	491a      	ldr	r1, [pc, #104]	@ (100012dc <pll_init+0x94>)
10001272:	18e3      	adds	r3, r4, r3
10001274:	1e5a      	subs	r2, r3, #1
10001276:	4193      	sbcs	r3, r2
10001278:	2280      	movs	r2, #128	@ 0x80
1000127a:	0192      	lsls	r2, r2, #6
1000127c:	4694      	mov	ip, r2
1000127e:	425b      	negs	r3, r3
10001280:	0b1b      	lsrs	r3, r3, #12
10001282:	4a17      	ldr	r2, [pc, #92]	@ (100012e0 <pll_init+0x98>)
10001284:	031b      	lsls	r3, r3, #12
10001286:	4463      	add	r3, ip
10001288:	6013      	str	r3, [r2, #0]
1000128a:	4a16      	ldr	r2, [pc, #88]	@ (100012e4 <pll_init+0x9c>)
1000128c:	6013      	str	r3, [r2, #0]
1000128e:	001f      	movs	r7, r3
10001290:	680a      	ldr	r2, [r1, #0]
10001292:	4397      	bics	r7, r2
10001294:	d1fb      	bne.n	1000128e <pll_init+0x46>
10001296:	4b14      	ldr	r3, [pc, #80]	@ (100012e8 <pll_init+0xa0>)
10001298:	6025      	str	r5, [r4, #0]
1000129a:	18e2      	adds	r2, r4, r3
1000129c:	2321      	movs	r3, #33	@ 0x21
1000129e:	60a0      	str	r0, [r4, #8]
100012a0:	6013      	str	r3, [r2, #0]
100012a2:	6823      	ldr	r3, [r4, #0]
100012a4:	2b00      	cmp	r3, #0
100012a6:	dafc      	bge.n	100012a2 <pll_init+0x5a>
100012a8:	2308      	movs	r3, #8
100012aa:	60e6      	str	r6, [r4, #12]
100012ac:	6013      	str	r3, [r2, #0]
100012ae:	bdf8      	pop	{r3, r4, r5, r6, r7, pc}
100012b0:	233f      	movs	r3, #63	@ 0x3f
100012b2:	6822      	ldr	r2, [r4, #0]
100012b4:	4013      	ands	r3, r2
100012b6:	42ab      	cmp	r3, r5
100012b8:	d1d9      	bne.n	1000126e <pll_init+0x26>
100012ba:	68a3      	ldr	r3, [r4, #8]
100012bc:	051b      	lsls	r3, r3, #20
100012be:	0d1b      	lsrs	r3, r3, #20
100012c0:	4283      	cmp	r3, r0
100012c2:	d1d4      	bne.n	1000126e <pll_init+0x26>
100012c4:	22ee      	movs	r2, #238	@ 0xee
100012c6:	68e3      	ldr	r3, [r4, #12]
100012c8:	02d2      	lsls	r2, r2, #11
100012ca:	4013      	ands	r3, r2
100012cc:	42b3      	cmp	r3, r6
100012ce:	d1ce      	bne.n	1000126e <pll_init+0x26>
100012d0:	e7ed      	b.n	100012ae <pll_init+0x66>
100012d2:	46c0      	nop			@ (mov r8, r8)
100012d4:	00b71b00 	.word	0x00b71b00
100012d8:	bffd4000 	.word	0xbffd4000
100012dc:	4000c008 	.word	0x4000c008
100012e0:	4000e000 	.word	0x4000e000
100012e4:	4000f000 	.word	0x4000f000
100012e8:	00003004 	.word	0x00003004

100012ec <tick_start>:
100012ec:	2380      	movs	r3, #128	@ 0x80
100012ee:	4a02      	ldr	r2, [pc, #8]	@ (100012f8 <tick_start+0xc>)
100012f0:	009b      	lsls	r3, r3, #2
100012f2:	430b      	orrs	r3, r1
100012f4:	62d3      	str	r3, [r2, #44]	@ 0x2c
100012f6:	4770      	bx	lr
100012f8:	40058000 	.word	0x40058000

100012fc <xosc_init>:
100012fc:	23aa      	movs	r3, #170	@ 0xaa
100012fe:	4a06      	ldr	r2, [pc, #24]	@ (10001318 <xosc_init+0x1c>)
10001300:	011b      	lsls	r3, r3, #4
10001302:	6013      	str	r3, [r2, #0]
10001304:	232f      	movs	r3, #47	@ 0x2f
10001306:	4905      	ldr	r1, [pc, #20]	@ (1000131c <xosc_init+0x20>)
10001308:	60d3      	str	r3, [r2, #12]
1000130a:	4b05      	ldr	r3, [pc, #20]	@ (10001320 <xosc_init+0x24>)
1000130c:	6019      	str	r1, [r3, #0]
1000130e:	6853      	ldr	r3, [r2, #4]
10001310:	2b00      	cmp	r3, #0
10001312:	dafc      	bge.n	1000130e <xosc_init+0x12>
10001314:	4770      	bx	lr
10001316:	46c0      	nop			@ (mov r8, r8)
10001318:	40024000 	.word	0x40024000
1000131c:	00fab000 	.word	0x00fab000
10001320:	40026000 	.word	0x40026000

10001324 <adc_init>:
10001324:	2301      	movs	r3, #1
10001326:	2101      	movs	r1, #1
10001328:	4a08      	ldr	r2, [pc, #32]	@ (1000134c <adc_init+0x28>)
1000132a:	6013      	str	r3, [r2, #0]
1000132c:	4a08      	ldr	r2, [pc, #32]	@ (10001350 <adc_init+0x2c>)
1000132e:	6013      	str	r3, [r2, #0]
10001330:	4a08      	ldr	r2, [pc, #32]	@ (10001354 <adc_init+0x30>)
10001332:	0008      	movs	r0, r1
10001334:	6813      	ldr	r3, [r2, #0]
10001336:	4398      	bics	r0, r3
10001338:	d1fb      	bne.n	10001332 <adc_init+0xe>
1000133a:	4a07      	ldr	r2, [pc, #28]	@ (10001358 <adc_init+0x34>)
1000133c:	6011      	str	r1, [r2, #0]
1000133e:	2180      	movs	r1, #128	@ 0x80
10001340:	0049      	lsls	r1, r1, #1
10001342:	6813      	ldr	r3, [r2, #0]
10001344:	420b      	tst	r3, r1
10001346:	d0fc      	beq.n	10001342 <adc_init+0x1e>
10001348:	4770      	bx	lr
1000134a:	46c0      	nop			@ (mov r8, r8)
1000134c:	4000e000 	.word	0x4000e000
10001350:	4000f000 	.word	0x4000f000
10001354:	4000c008 	.word	0x4000c008
10001358:	4004c000 	.word	0x4004c000

1000135c <uart_init>:
1000135c:	b5f8      	push	{r3, r4, r5, r6, r7, lr}
1000135e:	0004      	movs	r4, r0
10001360:	2006      	movs	r0, #6
10001362:	000d      	movs	r5, r1
10001364:	f7ff ff08 	bl	10001178 <clock_get_hz>
10001368:	2800      	cmp	r0, #0
1000136a:	d044      	beq.n	100013f6 <uart_init+0x9a>
1000136c:	4b37      	ldr	r3, [pc, #220]	@ (1000144c <uart_init+0xf0>)
1000136e:	4938      	ldr	r1, [pc, #224]	@ (10001450 <uart_init+0xf4>)
10001370:	18e3      	adds	r3, r4, r3
10001372:	1e5a      	subs	r2, r3, #1
10001374:	4193      	sbcs	r3, r2
10001376:	2280      	movs	r2, #128	@ 0x80
10001378:	0412      	lsls	r2, r2, #16
1000137a:	4694      	mov	ip, r2
1000137c:	425b      	negs	r3, r3
1000137e:	0d9b      	lsrs	r3, r3, #22
10001380:	4a34      	ldr	r2, [pc, #208]	@ (10001454 <uart_init+0xf8>)
10001382:	059b      	lsls	r3, r3, #22
10001384:	4463      	add	r3, ip
10001386:	6013      	str	r3, [r2, #0]
10001388:	4a33      	ldr	r2, [pc, #204]	@ (10001458 <uart_init+0xfc>)
1000138a:	6013      	str	r3, [r2, #0]
1000138c:	0018      	movs	r0, r3
1000138e:	680a      	ldr	r2, [r1, #0]
10001390:	4390      	bics	r0, r2
10001392:	d1fb      	bne.n	1000138c <uart_init+0x30>
10001394:	4b2d      	ldr	r3, [pc, #180]	@ (1000144c <uart_init+0xf0>)
10001396:	4a31      	ldr	r2, [pc, #196]	@ (1000145c <uart_init+0x100>)
10001398:	18e3      	adds	r3, r4, r3
1000139a:	4259      	negs	r1, r3
1000139c:	414b      	adcs	r3, r1
1000139e:	2180      	movs	r1, #128	@ 0x80
100013a0:	005b      	lsls	r3, r3, #1
100013a2:	0049      	lsls	r1, r1, #1
100013a4:	2006      	movs	r0, #6
100013a6:	5299      	strh	r1, [r3, r2]
100013a8:	f7ff fee6 	bl	10001178 <clock_get_hz>
100013ac:	0029      	movs	r1, r5
100013ae:	00c0      	lsls	r0, r0, #3
100013b0:	f000 f976 	bl	100016a0 <__wrap___aeabi_uidiv>
100013b4:	3001      	adds	r0, #1
100013b6:	09c3      	lsrs	r3, r0, #7
100013b8:	d11e      	bne.n	100013f8 <uart_init+0x9c>
100013ba:	2740      	movs	r7, #64	@ 0x40
100013bc:	2201      	movs	r2, #1
100013be:	6262      	str	r2, [r4, #36]	@ 0x24
100013c0:	62a3      	str	r3, [r4, #40]	@ 0x28
100013c2:	6b26      	ldr	r6, [r4, #48]	@ 0x30
100013c4:	07f3      	lsls	r3, r6, #31
100013c6:	d422      	bmi.n	1000140e <uart_init+0xb2>
100013c8:	6ae3      	ldr	r3, [r4, #44]	@ 0x2c
100013ca:	4b25      	ldr	r3, [pc, #148]	@ (10001460 <uart_init+0x104>)
100013cc:	2006      	movs	r0, #6
100013ce:	18e5      	adds	r5, r4, r3
100013d0:	2300      	movs	r3, #0
100013d2:	602b      	str	r3, [r5, #0]
100013d4:	6326      	str	r6, [r4, #48]	@ 0x30
100013d6:	f7ff fecf 	bl	10001178 <clock_get_hz>
100013da:	0039      	movs	r1, r7
100013dc:	0080      	lsls	r0, r0, #2
100013de:	f000 f95f 	bl	100016a0 <__wrap___aeabi_uidiv>
100013e2:	2370      	movs	r3, #112	@ 0x70
100013e4:	6ae2      	ldr	r2, [r4, #44]	@ 0x2c
100013e6:	405a      	eors	r2, r3
100013e8:	330e      	adds	r3, #14
100013ea:	4013      	ands	r3, r2
100013ec:	602b      	str	r3, [r5, #0]
100013ee:	4b1d      	ldr	r3, [pc, #116]	@ (10001464 <uart_init+0x108>)
100013f0:	6323      	str	r3, [r4, #48]	@ 0x30
100013f2:	2303      	movs	r3, #3
100013f4:	64a3      	str	r3, [r4, #72]	@ 0x48
100013f6:	bdf8      	pop	{r3, r4, r5, r6, r7, pc}
100013f8:	4a1b      	ldr	r2, [pc, #108]	@ (10001468 <uart_init+0x10c>)
100013fa:	4293      	cmp	r3, r2
100013fc:	d91e      	bls.n	1000143c <uart_init+0xe0>
100013fe:	2300      	movs	r3, #0
10001400:	4a1a      	ldr	r2, [pc, #104]	@ (1000146c <uart_init+0x110>)
10001402:	4f1b      	ldr	r7, [pc, #108]	@ (10001470 <uart_init+0x114>)
10001404:	6262      	str	r2, [r4, #36]	@ 0x24
10001406:	62a3      	str	r3, [r4, #40]	@ 0x28
10001408:	6b26      	ldr	r6, [r4, #48]	@ 0x30
1000140a:	07f3      	lsls	r3, r6, #31
1000140c:	d5dc      	bpl.n	100013c8 <uart_init+0x6c>
1000140e:	4b19      	ldr	r3, [pc, #100]	@ (10001474 <uart_init+0x118>)
10001410:	4a14      	ldr	r2, [pc, #80]	@ (10001464 <uart_init+0x108>)
10001412:	18e3      	adds	r3, r4, r3
10001414:	601a      	str	r2, [r3, #0]
10001416:	6a65      	ldr	r5, [r4, #36]	@ 0x24
10001418:	6aa3      	ldr	r3, [r4, #40]	@ 0x28
1000141a:	2006      	movs	r0, #6
1000141c:	01ad      	lsls	r5, r5, #6
1000141e:	18ed      	adds	r5, r5, r3
10001420:	f7ff feaa 	bl	10001178 <clock_get_hz>
10001424:	4914      	ldr	r1, [pc, #80]	@ (10001478 <uart_init+0x11c>)
10001426:	f000 f93b 	bl	100016a0 <__wrap___aeabi_uidiv>
1000142a:	02ad      	lsls	r5, r5, #10
1000142c:	0001      	movs	r1, r0
1000142e:	0028      	movs	r0, r5
10001430:	f000 f936 	bl	100016a0 <__wrap___aeabi_uidiv>
10001434:	2100      	movs	r1, #0
10001436:	f7ff fbbb 	bl	10000bb0 <busy_wait_us>
1000143a:	e7c5      	b.n	100013c8 <uart_init+0x6c>
1000143c:	0640      	lsls	r0, r0, #25
1000143e:	0e80      	lsrs	r0, r0, #26
10001440:	019f      	lsls	r7, r3, #6
10001442:	001a      	movs	r2, r3
10001444:	183f      	adds	r7, r7, r0
10001446:	0003      	movs	r3, r0
10001448:	e7b9      	b.n	100013be <uart_init+0x62>
1000144a:	46c0      	nop			@ (mov r8, r8)
1000144c:	bffc8000 	.word	0xbffc8000
10001450:	4000c008 	.word	0x4000c008
10001454:	4000e000 	.word	0x4000e000
10001458:	4000f000 	.word	0x4000f000
1000145c:	20000700 	.word	0x20000700
10001460:	0000102c 	.word	0x0000102c
10001464:	00000301 	.word	0x00000301
10001468:	0000fffe 	.word	0x0000fffe
1000146c:	0000ffff 	.word	0x0000ffff
10001470:	003fffc0 	.word	0x003fffc0
10001474:	00003030 	.word	0x00003030
10001478:	00000e4e 	.word	0x00000e4e

1000147c <first_per_core_initializer>:
1000147c:	4770      	bx	lr
1000147e:	46c0      	nop			@ (mov r8, r8)

10001480 <hard_assertion_failure>:
10001480:	b510      	push	{r4, lr}
10001482:	4801      	ldr	r0, [pc, #4]	@ (10001488 <hard_assertion_failure+0x8>)
10001484:	f7ff f858 	bl	10000538 <panic>
10001488:	10001ea4 	.word	0x10001ea4

1000148c <runtime_run_initializers>:
1000148c:	b570      	push	{r4, r5, r6, lr}
1000148e:	4d07      	ldr	r5, [pc, #28]	@ (100014ac <runtime_run_initializers+0x20>)
10001490:	4e07      	ldr	r6, [pc, #28]	@ (100014b0 <runtime_run_initializers+0x24>)
10001492:	42b5      	cmp	r5, r6
10001494:	d209      	bcs.n	100014aa <runtime_run_initializers+0x1e>
10001496:	2400      	movs	r4, #0
10001498:	3e01      	subs	r6, #1
1000149a:	1b76      	subs	r6, r6, r5
1000149c:	08b6      	lsrs	r6, r6, #2
1000149e:	cd08      	ldmia	r5!, {r3}
100014a0:	4798      	blx	r3
100014a2:	0023      	movs	r3, r4
100014a4:	3401      	adds	r4, #1
100014a6:	42b3      	cmp	r3, r6
100014a8:	d1f9      	bne.n	1000149e <runtime_run_initializers+0x12>
100014aa:	bd70      	pop	{r4, r5, r6, pc}
100014ac:	10001e18 	.word	0x10001e18
100014b0:	10001e54 	.word	0x10001e54

100014b4 <runtime_init_early_resets>:
100014b4:	4b05      	ldr	r3, [pc, #20]	@ (100014cc <runtime_init_early_resets+0x18>)
100014b6:	4a06      	ldr	r2, [pc, #24]	@ (100014d0 <runtime_init_early_resets+0x1c>)
100014b8:	4906      	ldr	r1, [pc, #24]	@ (100014d4 <runtime_init_early_resets+0x20>)
100014ba:	601a      	str	r2, [r3, #0]
100014bc:	4a06      	ldr	r2, [pc, #24]	@ (100014d8 <runtime_init_early_resets+0x24>)
100014be:	4b07      	ldr	r3, [pc, #28]	@ (100014dc <runtime_init_early_resets+0x28>)
100014c0:	601a      	str	r2, [r3, #0]
100014c2:	0010      	movs	r0, r2
100014c4:	680b      	ldr	r3, [r1, #0]
100014c6:	4398      	bics	r0, r3
100014c8:	d1fb      	bne.n	100014c2 <runtime_init_early_resets+0xe>
100014ca:	4770      	bx	lr
100014cc:	4000e000 	.word	0x4000e000
100014d0:	fefbcdbf 	.word	0xfefbcdbf
100014d4:	4000c008 	.word	0x4000c008
100014d8:	003c7ffe 	.word	0x003c7ffe
100014dc:	4000f000 	.word	0x4000f000

100014e0 <runtime_init_usb_power_down>:
100014e0:	4b04      	ldr	r3, [pc, #16]	@ (100014f4 <runtime_init_usb_power_down+0x14>)
100014e2:	6cdb      	ldr	r3, [r3, #76]	@ 0x4c
100014e4:	2b00      	cmp	r3, #0
100014e6:	d103      	bne.n	100014f0 <runtime_init_usb_power_down+0x10>
100014e8:	2280      	movs	r2, #128	@ 0x80
100014ea:	4b03      	ldr	r3, [pc, #12]	@ (100014f8 <runtime_init_usb_power_down+0x18>)
100014ec:	02d2      	lsls	r2, r2, #11
100014ee:	601a      	str	r2, [r3, #0]
100014f0:	4770      	bx	lr
100014f2:	46c0      	nop			@ (mov r8, r8)
100014f4:	50110000 	.word	0x50110000
100014f8:	5011204c 	.word	0x5011204c

100014fc <runtime_init_post_clock_resets>:
100014fc:	4a04      	ldr	r2, [pc, #16]	@ (10001510 <runtime_init_post_clock_resets+0x14>)
100014fe:	4b05      	ldr	r3, [pc, #20]	@ (10001514 <runtime_init_post_clock_resets+0x18>)
10001500:	601a      	str	r2, [r3, #0]
10001502:	4a05      	ldr	r2, [pc, #20]	@ (10001518 <runtime_init_post_clock_resets+0x1c>)
10001504:	6813      	ldr	r3, [r2, #0]
10001506:	01db      	lsls	r3, r3, #7
10001508:	3380      	adds	r3, #128	@ 0x80
1000150a:	d1fb      	bne.n	10001504 <runtime_init_post_clock_resets+0x8>
1000150c:	4770      	bx	lr
1000150e:	46c0      	nop			@ (mov r8, r8)
10001510:	01ffffff 	.word	0x01ffffff
10001514:	4000f000 	.word	0x4000f000
10001518:	4000c008 	.word	0x4000c008

1000151c <runtime_init_rp2040_gpio_ie_disable>:
1000151c:	2240      	movs	r2, #64	@ 0x40
1000151e:	4b03      	ldr	r3, [pc, #12]	@ (1000152c <runtime_init_rp2040_gpio_ie_disable+0x10>)
10001520:	679a      	str	r2, [r3, #120]	@ 0x78
10001522:	675a      	str	r2, [r3, #116]	@ 0x74
10001524:	671a      	str	r2, [r3, #112]	@ 0x70
10001526:	66da      	str	r2, [r3, #108]	@ 0x6c
10001528:	4770      	bx	lr
1000152a:	46c0      	nop			@ (mov r8, r8)
1000152c:	4001f000 	.word	0x4001f000

10001530 <runtime_init_spin_locks_reset>:
10001530:	b510      	push	{r4, lr}
10001532:	f7ff f847 	bl	100005c4 <spin_locks_reset>
10001536:	bd10      	pop	{r4, pc}

10001538 <runtime_init_install_ram_vector_table>:
10001538:	b570      	push	{r4, r5, r6, lr}
1000153a:	4d04      	ldr	r5, [pc, #16]	@ (1000154c <runtime_init_install_ram_vector_table+0x14>)
1000153c:	4c04      	ldr	r4, [pc, #16]	@ (10001550 <runtime_init_install_ram_vector_table+0x18>)
1000153e:	68a9      	ldr	r1, [r5, #8]
10001540:	22c0      	movs	r2, #192	@ 0xc0
10001542:	0020      	movs	r0, r4
10001544:	f000 f98a 	bl	1000185c <__wrap___aeabi_memcpy>
10001548:	60ac      	str	r4, [r5, #8]
1000154a:	bd70      	pop	{r4, r5, r6, pc}
1000154c:	e000ed00 	.word	0xe000ed00
10001550:	20000000 	.word	0x20000000

10001554 <runtime_init_clocks>:
10001554:	2300      	movs	r3, #0
10001556:	b510      	push	{r4, lr}
10001558:	4c29      	ldr	r4, [pc, #164]	@ (10001600 <runtime_init_clocks+0xac>)
1000155a:	b082      	sub	sp, #8
1000155c:	67a3      	str	r3, [r4, #120]	@ 0x78
1000155e:	f7ff fecd 	bl	100012fc <xosc_init>
10001562:	2201      	movs	r2, #1
10001564:	4b27      	ldr	r3, [pc, #156]	@ (10001604 <runtime_init_clocks+0xb0>)
10001566:	601a      	str	r2, [r3, #0]
10001568:	6c63      	ldr	r3, [r4, #68]	@ 0x44
1000156a:	2b01      	cmp	r3, #1
1000156c:	d1fc      	bne.n	10001568 <runtime_init_clocks+0x14>
1000156e:	2203      	movs	r2, #3
10001570:	4b25      	ldr	r3, [pc, #148]	@ (10001608 <runtime_init_clocks+0xb4>)
10001572:	601a      	str	r2, [r3, #0]
10001574:	4a22      	ldr	r2, [pc, #136]	@ (10001600 <runtime_init_clocks+0xac>)
10001576:	6b93      	ldr	r3, [r2, #56]	@ 0x38
10001578:	2b01      	cmp	r3, #1
1000157a:	d1fc      	bne.n	10001576 <runtime_init_clocks+0x22>
1000157c:	3301      	adds	r3, #1
1000157e:	9300      	str	r3, [sp, #0]
10001580:	2101      	movs	r1, #1
10001582:	4a22      	ldr	r2, [pc, #136]	@ (1000160c <runtime_init_clocks+0xb8>)
10001584:	4822      	ldr	r0, [pc, #136]	@ (10001610 <runtime_init_clocks+0xbc>)
10001586:	3304      	adds	r3, #4
10001588:	f7ff fe5e 	bl	10001248 <pll_init>
1000158c:	2305      	movs	r3, #5
1000158e:	2101      	movs	r1, #1
10001590:	9300      	str	r3, [sp, #0]
10001592:	4a20      	ldr	r2, [pc, #128]	@ (10001614 <runtime_init_clocks+0xc0>)
10001594:	4820      	ldr	r0, [pc, #128]	@ (10001618 <runtime_init_clocks+0xc4>)
10001596:	f7ff fe57 	bl	10001248 <pll_init>
1000159a:	2200      	movs	r2, #0
1000159c:	2102      	movs	r1, #2
1000159e:	2004      	movs	r0, #4
100015a0:	4b1e      	ldr	r3, [pc, #120]	@ (1000161c <runtime_init_clocks+0xc8>)
100015a2:	f7ff fd75 	bl	10001090 <clock_configure_undivided>
100015a6:	2200      	movs	r2, #0
100015a8:	2101      	movs	r1, #1
100015aa:	2005      	movs	r0, #5
100015ac:	4b1c      	ldr	r3, [pc, #112]	@ (10001620 <runtime_init_clocks+0xcc>)
100015ae:	f7ff fd6f 	bl	10001090 <clock_configure_undivided>
100015b2:	2200      	movs	r2, #0
100015b4:	2100      	movs	r1, #0
100015b6:	2007      	movs	r0, #7
100015b8:	4b1a      	ldr	r3, [pc, #104]	@ (10001624 <runtime_init_clocks+0xd0>)
100015ba:	f7ff fd69 	bl	10001090 <clock_configure_undivided>
100015be:	2200      	movs	r2, #0
100015c0:	2100      	movs	r1, #0
100015c2:	2008      	movs	r0, #8
100015c4:	4b17      	ldr	r3, [pc, #92]	@ (10001624 <runtime_init_clocks+0xd0>)
100015c6:	f7ff fd63 	bl	10001090 <clock_configure_undivided>
100015ca:	2380      	movs	r3, #128	@ 0x80
100015cc:	00db      	lsls	r3, r3, #3
100015ce:	9300      	str	r3, [sp, #0]
100015d0:	2200      	movs	r2, #0
100015d2:	2100      	movs	r1, #0
100015d4:	2009      	movs	r0, #9
100015d6:	4b13      	ldr	r3, [pc, #76]	@ (10001624 <runtime_init_clocks+0xd0>)
100015d8:	f7ff fce0 	bl	10000f9c <clock_configure_int_divider>
100015dc:	2200      	movs	r2, #0
100015de:	4b10      	ldr	r3, [pc, #64]	@ (10001620 <runtime_init_clocks+0xcc>)
100015e0:	2100      	movs	r1, #0
100015e2:	2006      	movs	r0, #6
100015e4:	f7ff fd54 	bl	10001090 <clock_configure_undivided>
100015e8:	2004      	movs	r0, #4
100015ea:	f7ff fdc5 	bl	10001178 <clock_get_hz>
100015ee:	490e      	ldr	r1, [pc, #56]	@ (10001628 <runtime_init_clocks+0xd4>)
100015f0:	f000 f856 	bl	100016a0 <__wrap___aeabi_uidiv>
100015f4:	0001      	movs	r1, r0
100015f6:	2000      	movs	r0, #0
100015f8:	f7ff fe78 	bl	100012ec <tick_start>
100015fc:	b002      	add	sp, #8
100015fe:	bd10      	pop	{r4, pc}
10001600:	40008000 	.word	0x40008000
10001604:	4000b03c 	.word	0x4000b03c
10001608:	4000b030 	.word	0x4000b030
1000160c:	59682f00 	.word	0x59682f00
10001610:	40028000 	.word	0x40028000
10001614:	47868c00 	.word	0x47868c00
10001618:	4002c000 	.word	0x4002c000
1000161c:	00b71b00 	.word	0x00b71b00
10001620:	07735940 	.word	0x07735940
10001624:	02dc6c00 	.word	0x02dc6c00
10001628:	000f4240 	.word	0x000f4240

1000162c <__aeabi_bits_init>:
1000162c:	4801      	ldr	r0, [pc, #4]	@ (10001634 <__aeabi_bits_init+0x8>)
1000162e:	2104      	movs	r1, #4
10001630:	4b01      	ldr	r3, [pc, #4]	@ (10001638 <__aeabi_bits_init+0xc>)
10001632:	4718      	bx	r3
10001634:	200002c0 	.word	0x200002c0
10001638:	1000165d 	.word	0x1000165d

1000163c <rom_func_lookup>:
1000163c:	2314      	movs	r3, #20
1000163e:	b510      	push	{r4, lr}
10001640:	0001      	movs	r1, r0
10001642:	8818      	ldrh	r0, [r3, #0]
10001644:	3304      	adds	r3, #4
10001646:	881b      	ldrh	r3, [r3, #0]
10001648:	4798      	blx	r3
1000164a:	bd10      	pop	{r4, pc}

1000164c <rom_data_lookup>:
1000164c:	2316      	movs	r3, #22
1000164e:	b510      	push	{r4, lr}
10001650:	0001      	movs	r1, r0
10001652:	8818      	ldrh	r0, [r3, #0]
10001654:	3302      	adds	r3, #2
10001656:	881b      	ldrh	r3, [r3, #0]
10001658:	4798      	blx	r3
1000165a:	bd10      	pop	{r4, pc}

1000165c <rom_funcs_lookup>:
1000165c:	b5f8      	push	{r3, r4, r5, r6, r7, lr}
1000165e:	4647      	mov	r7, r8
10001660:	46ce      	mov	lr, r9
10001662:	b580      	push	{r7, lr}
10001664:	1e0f      	subs	r7, r1, #0
10001666:	d019      	beq.n	1000169c <rom_funcs_lookup+0x40>
10001668:	2314      	movs	r3, #20
1000166a:	4699      	mov	r9, r3
1000166c:	3304      	adds	r3, #4
1000166e:	0004      	movs	r4, r0
10001670:	2500      	movs	r5, #0
10001672:	2601      	movs	r6, #1
10001674:	4698      	mov	r8, r3
10001676:	464b      	mov	r3, r9
10001678:	8818      	ldrh	r0, [r3, #0]
1000167a:	4643      	mov	r3, r8
1000167c:	6821      	ldr	r1, [r4, #0]
1000167e:	881b      	ldrh	r3, [r3, #0]
10001680:	4798      	blx	r3
10001682:	c401      	stmia	r4!, {r0}
10001684:	1e43      	subs	r3, r0, #1
10001686:	4198      	sbcs	r0, r3
10001688:	3501      	adds	r5, #1
1000168a:	4240      	negs	r0, r0
1000168c:	4006      	ands	r6, r0
1000168e:	42af      	cmp	r7, r5
10001690:	d1f1      	bne.n	10001676 <rom_funcs_lookup+0x1a>
10001692:	0030      	movs	r0, r6
10001694:	bcc0      	pop	{r6, r7}
10001696:	46b9      	mov	r9, r7
10001698:	46b0      	mov	r8, r6
1000169a:	bdf8      	pop	{r3, r4, r5, r6, r7, pc}
1000169c:	2601      	movs	r6, #1
1000169e:	e7f8      	b.n	10001692 <rom_funcs_lookup+0x36>

100016a0 <__wrap___aeabi_uidiv>:
100016a0:	4a11      	ldr	r2, [pc, #68]	@ (100016e8 <divmod_u32u32_savestate+0x18>)
100016a2:	6f93      	ldr	r3, [r2, #120]	@ 0x78
100016a4:	089b      	lsrs	r3, r3, #2
100016a6:	d213      	bcs.n	100016d0 <divmod_u32u32_savestate>

100016a8 <divmod_u32u32_unsafe>:
100016a8:	6610      	str	r0, [r2, #96]	@ 0x60
100016aa:	6651      	str	r1, [r2, #100]	@ 0x64
100016ac:	2900      	cmp	r1, #0
100016ae:	d005      	beq.n	100016bc <divmod_u32u32_unsafe+0x14>
100016b0:	e7ff      	b.n	100016b2 <divmod_u32u32_unsafe+0xa>
100016b2:	e7ff      	b.n	100016b4 <divmod_u32u32_unsafe+0xc>
100016b4:	e7ff      	b.n	100016b6 <divmod_u32u32_unsafe+0xe>
100016b6:	6f51      	ldr	r1, [r2, #116]	@ 0x74
100016b8:	6f10      	ldr	r0, [r2, #112]	@ 0x70
100016ba:	4770      	bx	lr
100016bc:	b504      	push	{r2, lr}
100016be:	2800      	cmp	r0, #0
100016c0:	d001      	beq.n	100016c6 <divmod_u32u32_unsafe+0x1e>
100016c2:	2000      	movs	r0, #0
100016c4:	43c0      	mvns	r0, r0
100016c6:	f000 fb97 	bl	10001df8 <____aeabi_idiv0_veneer>
100016ca:	2100      	movs	r1, #0
100016cc:	bd04      	pop	{r2, pc}
100016ce:	46c0      	nop			@ (mov r8, r8)

100016d0 <divmod_u32u32_savestate>:
100016d0:	b5f0      	push	{r4, r5, r6, r7, lr}
100016d2:	6e14      	ldr	r4, [r2, #96]	@ 0x60
100016d4:	6e55      	ldr	r5, [r2, #100]	@ 0x64
100016d6:	6f57      	ldr	r7, [r2, #116]	@ 0x74
100016d8:	6f16      	ldr	r6, [r2, #112]	@ 0x70
100016da:	f7ff ffe5 	bl	100016a8 <divmod_u32u32_unsafe>
100016de:	6614      	str	r4, [r2, #96]	@ 0x60
100016e0:	6655      	str	r5, [r2, #100]	@ 0x64
100016e2:	6757      	str	r7, [r2, #116]	@ 0x74
100016e4:	6716      	str	r6, [r2, #112]	@ 0x70
100016e6:	bdf0      	pop	{r4, r5, r6, r7, pc}
100016e8:	d0000000 	.word	0xd0000000

100016ec <__aeabi_double_init>:
100016ec:	2313      	movs	r3, #19
100016ee:	b570      	push	{r4, r5, r6, lr}
100016f0:	781d      	ldrb	r5, [r3, #0]
100016f2:	2d01      	cmp	r5, #1
100016f4:	d019      	beq.n	1000172a <__aeabi_double_init+0x3e>
100016f6:	dd14      	ble.n	10001722 <__aeabi_double_init+0x36>
100016f8:	481f      	ldr	r0, [pc, #124]	@ (10001778 <__aeabi_double_init+0x8c>)
100016fa:	f7ff ffa7 	bl	1000164c <rom_data_lookup>
100016fe:	0006      	movs	r6, r0
10001700:	481e      	ldr	r0, [pc, #120]	@ (1000177c <__aeabi_double_init+0x90>)
10001702:	f7ff ffa3 	bl	1000164c <rom_data_lookup>
10001706:	4c1e      	ldr	r4, [pc, #120]	@ (10001780 <__aeabi_double_init+0x94>)
10001708:	2280      	movs	r2, #128	@ 0x80
1000170a:	0031      	movs	r1, r6
1000170c:	0020      	movs	r0, r4
1000170e:	f000 f8a5 	bl	1000185c <__wrap___aeabi_memcpy>
10001712:	2d02      	cmp	r5, #2
10001714:	d02d      	beq.n	10001772 <__aeabi_double_init+0x86>
10001716:	481b      	ldr	r0, [pc, #108]	@ (10001784 <__aeabi_double_init+0x98>)
10001718:	f7ff ff90 	bl	1000163c <rom_func_lookup>
1000171c:	4b1a      	ldr	r3, [pc, #104]	@ (10001788 <__aeabi_double_init+0x9c>)
1000171e:	6018      	str	r0, [r3, #0]
10001720:	bd70      	pop	{r4, r5, r6, pc}
10001722:	4b1a      	ldr	r3, [pc, #104]	@ (1000178c <__aeabi_double_init+0xa0>)
10001724:	4c16      	ldr	r4, [pc, #88]	@ (10001780 <__aeabi_double_init+0x94>)
10001726:	64a3      	str	r3, [r4, #72]	@ 0x48
10001728:	e7f5      	b.n	10001716 <__aeabi_double_init+0x2a>
1000172a:	4b18      	ldr	r3, [pc, #96]	@ (1000178c <__aeabi_double_init+0xa0>)
1000172c:	4c14      	ldr	r4, [pc, #80]	@ (10001780 <__aeabi_double_init+0x94>)
1000172e:	6023      	str	r3, [r4, #0]
10001730:	6063      	str	r3, [r4, #4]
10001732:	60a3      	str	r3, [r4, #8]
10001734:	60e3      	str	r3, [r4, #12]
10001736:	6123      	str	r3, [r4, #16]
10001738:	6163      	str	r3, [r4, #20]
1000173a:	61a3      	str	r3, [r4, #24]
1000173c:	61e3      	str	r3, [r4, #28]
1000173e:	6223      	str	r3, [r4, #32]
10001740:	6263      	str	r3, [r4, #36]	@ 0x24
10001742:	62a3      	str	r3, [r4, #40]	@ 0x28
10001744:	62e3      	str	r3, [r4, #44]	@ 0x2c
10001746:	6323      	str	r3, [r4, #48]	@ 0x30
10001748:	6363      	str	r3, [r4, #52]	@ 0x34
1000174a:	63a3      	str	r3, [r4, #56]	@ 0x38
1000174c:	63e3      	str	r3, [r4, #60]	@ 0x3c
1000174e:	6423      	str	r3, [r4, #64]	@ 0x40
10001750:	6463      	str	r3, [r4, #68]	@ 0x44
10001752:	64a3      	str	r3, [r4, #72]	@ 0x48
10001754:	64e3      	str	r3, [r4, #76]	@ 0x4c
10001756:	6523      	str	r3, [r4, #80]	@ 0x50
10001758:	6563      	str	r3, [r4, #84]	@ 0x54
1000175a:	65a3      	str	r3, [r4, #88]	@ 0x58
1000175c:	65e3      	str	r3, [r4, #92]	@ 0x5c
1000175e:	6623      	str	r3, [r4, #96]	@ 0x60
10001760:	6663      	str	r3, [r4, #100]	@ 0x64
10001762:	66a3      	str	r3, [r4, #104]	@ 0x68
10001764:	66e3      	str	r3, [r4, #108]	@ 0x6c
10001766:	6723      	str	r3, [r4, #112]	@ 0x70
10001768:	6763      	str	r3, [r4, #116]	@ 0x74
1000176a:	67a3      	str	r3, [r4, #120]	@ 0x78
1000176c:	67e3      	str	r3, [r4, #124]	@ 0x7c
1000176e:	64a3      	str	r3, [r4, #72]	@ 0x48
10001770:	e7d1      	b.n	10001716 <__aeabi_double_init+0x2a>
10001772:	4b06      	ldr	r3, [pc, #24]	@ (1000178c <__aeabi_double_init+0xa0>)
10001774:	64a3      	str	r3, [r4, #72]	@ 0x48
10001776:	e7ce      	b.n	10001716 <__aeabi_double_init+0x2a>
10001778:	00004453 	.word	0x00004453
1000177c:	00004653 	.word	0x00004653
10001780:	20000480 	.word	0x20000480
10001784:	0000334c 	.word	0x0000334c
10001788:	200006f8 	.word	0x200006f8
1000178c:	10001791 	.word	0x10001791

10001790 <double_table_shim_on_use_helper>:
10001790:	b507      	push	{r0, r1, r2, lr}
10001792:	4660      	mov	r0, ip
10001794:	8801      	ldrh	r1, [r0, #0]
10001796:	0a0a      	lsrs	r2, r1, #8
10001798:	3002      	adds	r0, #2
1000179a:	2adf      	cmp	r2, #223	@ 0xdf
1000179c:	d1fa      	bne.n	10001794 <double_table_shim_on_use_helper+0x4>
1000179e:	b2c9      	uxtb	r1, r1
100017a0:	0882      	lsrs	r2, r0, #2
100017a2:	d304      	bcc.n	100017ae <double_table_shim_on_use_helper+0x1e>
100017a4:	8802      	ldrh	r2, [r0, #0]
100017a6:	8840      	ldrh	r0, [r0, #2]
100017a8:	0400      	lsls	r0, r0, #16
100017aa:	4310      	orrs	r0, r2
100017ac:	e000      	b.n	100017b0 <double_table_shim_on_use_helper+0x20>
100017ae:	6800      	ldr	r0, [r0, #0]
100017b0:	4a01      	ldr	r2, [pc, #4]	@ (100017b8 <double_table_shim_on_use_helper+0x28>)
100017b2:	5050      	str	r0, [r2, r1]
100017b4:	9003      	str	r0, [sp, #12]
100017b6:	bd07      	pop	{r0, r1, r2, pc}
100017b8:	20000480 	.word	0x20000480

100017bc <__aeabi_float_init>:
100017bc:	2313      	movs	r3, #19
100017be:	b510      	push	{r4, lr}
100017c0:	4812      	ldr	r0, [pc, #72]	@ (1000180c <__aeabi_float_init+0x50>)
100017c2:	781c      	ldrb	r4, [r3, #0]
100017c4:	f7ff ff42 	bl	1000164c <rom_data_lookup>
100017c8:	0001      	movs	r1, r0
100017ca:	2c01      	cmp	r4, #1
100017cc:	d00a      	beq.n	100017e4 <__aeabi_float_init+0x28>
100017ce:	dd03      	ble.n	100017d8 <__aeabi_float_init+0x1c>
100017d0:	2280      	movs	r2, #128	@ 0x80
100017d2:	480f      	ldr	r0, [pc, #60]	@ (10001810 <__aeabi_float_init+0x54>)
100017d4:	f000 f842 	bl	1000185c <__wrap___aeabi_memcpy>
100017d8:	480e      	ldr	r0, [pc, #56]	@ (10001814 <__aeabi_float_init+0x58>)
100017da:	f7ff ff2f 	bl	1000163c <rom_func_lookup>
100017de:	4b0e      	ldr	r3, [pc, #56]	@ (10001818 <__aeabi_float_init+0x5c>)
100017e0:	6018      	str	r0, [r3, #0]
100017e2:	bd10      	pop	{r4, pc}
100017e4:	4c0a      	ldr	r4, [pc, #40]	@ (10001810 <__aeabi_float_init+0x54>)
100017e6:	2254      	movs	r2, #84	@ 0x54
100017e8:	0020      	movs	r0, r4
100017ea:	f000 f837 	bl	1000185c <__wrap___aeabi_memcpy>
100017ee:	4b0b      	ldr	r3, [pc, #44]	@ (1000181c <__aeabi_float_init+0x60>)
100017f0:	6563      	str	r3, [r4, #84]	@ 0x54
100017f2:	65a3      	str	r3, [r4, #88]	@ 0x58
100017f4:	65e3      	str	r3, [r4, #92]	@ 0x5c
100017f6:	6623      	str	r3, [r4, #96]	@ 0x60
100017f8:	6663      	str	r3, [r4, #100]	@ 0x64
100017fa:	66a3      	str	r3, [r4, #104]	@ 0x68
100017fc:	66e3      	str	r3, [r4, #108]	@ 0x6c
100017fe:	6723      	str	r3, [r4, #112]	@ 0x70
10001800:	6763      	str	r3, [r4, #116]	@ 0x74
10001802:	67a3      	str	r3, [r4, #120]	@ 0x78
10001804:	67e3      	str	r3, [r4, #124]	@ 0x7c
10001806:	6223      	str	r3, [r4, #32]
10001808:	61e3      	str	r3, [r4, #28]
1000180a:	e7e5      	b.n	100017d8 <__aeabi_float_init+0x1c>
1000180c:	00004653 	.word	0x00004653
10001810:	20000580 	.word	0x20000580
10001814:	0000334c 	.word	0x0000334c
10001818:	200006f8 	.word	0x200006f8
1000181c:	10001821 	.word	0x10001821

10001820 <float_table_shim_on_use_helper>:
10001820:	b507      	push	{r0, r1, r2, lr}
10001822:	4660      	mov	r0, ip
10001824:	8801      	ldrh	r1, [r0, #0]
10001826:	0a0a      	lsrs	r2, r1, #8
10001828:	3002      	adds	r0, #2
1000182a:	2adf      	cmp	r2, #223	@ 0xdf
1000182c:	d1fa      	bne.n	10001824 <float_table_shim_on_use_helper+0x4>
1000182e:	b2c9      	uxtb	r1, r1
10001830:	0882      	lsrs	r2, r0, #2
10001832:	d304      	bcc.n	1000183e <float_table_shim_on_use_helper+0x1e>
10001834:	8802      	ldrh	r2, [r0, #0]
10001836:	8840      	ldrh	r0, [r0, #2]
10001838:	0400      	lsls	r0, r0, #16
1000183a:	4310      	orrs	r0, r2
1000183c:	e000      	b.n	10001840 <float_table_shim_on_use_helper+0x20>
1000183e:	6800      	ldr	r0, [r0, #0]
10001840:	4a01      	ldr	r2, [pc, #4]	@ (10001848 <float_table_shim_on_use_helper+0x28>)
10001842:	5050      	str	r0, [r2, r1]
10001844:	9003      	str	r0, [sp, #12]
10001846:	bd07      	pop	{r0, r1, r2, pc}
10001848:	20000580 	.word	0x20000580

1000184c <__aeabi_mem_init>:
1000184c:	4801      	ldr	r0, [pc, #4]	@ (10001854 <__aeabi_mem_init+0x8>)
1000184e:	2104      	movs	r1, #4
10001850:	4b01      	ldr	r3, [pc, #4]	@ (10001858 <__aeabi_mem_init+0xc>)
10001852:	4718      	bx	r3
10001854:	200002d0 	.word	0x200002d0
10001858:	1000165d 	.word	0x1000165d

1000185c <__wrap___aeabi_memcpy>:
1000185c:	4b01      	ldr	r3, [pc, #4]	@ (10001864 <__wrap___aeabi_memcpy+0x8>)
1000185e:	685b      	ldr	r3, [r3, #4]
10001860:	4718      	bx	r3
10001862:	0000      	.short	0x0000
10001864:	200002d0 	.word	0x200002d0

10001868 <_out_char>:
10001868:	b510      	push	{r4, lr}
1000186a:	2800      	cmp	r0, #0
1000186c:	d100      	bne.n	10001870 <_out_char+0x8>
1000186e:	bd10      	pop	{r4, pc}
10001870:	f000 f926 	bl	10001ac0 <__wrap_putchar>
10001874:	e7fb      	b.n	1000186e <_out_char+0x6>
10001876:	46c0      	nop			@ (mov r8, r8)

10001878 <weak_raw_vprintf>:
10001878:	b510      	push	{r4, lr}
1000187a:	4a09      	ldr	r2, [pc, #36]	@ (100018a0 <weak_raw_vprintf+0x28>)
1000187c:	0003      	movs	r3, r0
1000187e:	6814      	ldr	r4, [r2, #0]
10001880:	b084      	sub	sp, #16
10001882:	2c00      	cmp	r4, #0
10001884:	d008      	beq.n	10001898 <weak_raw_vprintf+0x20>
10001886:	2201      	movs	r2, #1
10001888:	9100      	str	r1, [sp, #0]
1000188a:	4806      	ldr	r0, [pc, #24]	@ (100018a4 <weak_raw_vprintf+0x2c>)
1000188c:	4252      	negs	r2, r2
1000188e:	a903      	add	r1, sp, #12
10001890:	47a0      	blx	r4
10001892:	2001      	movs	r0, #1
10001894:	b004      	add	sp, #16
10001896:	bd10      	pop	{r4, pc}
10001898:	f000 f95e 	bl	10001b58 <__wrap_puts>
1000189c:	2000      	movs	r0, #0
1000189e:	e7f9      	b.n	10001894 <weak_raw_vprintf+0x1c>
100018a0:	200006cc 	.word	0x200006cc
100018a4:	10001869 	.word	0x10001869

100018a8 <_exit>:
100018a8:	be00      	bkpt	0x0000
100018aa:	e7fd      	b.n	100018a8 <_exit>

100018ac <exit>:
100018ac:	b510      	push	{r4, lr}
100018ae:	f7ff fffb 	bl	100018a8 <_exit>
100018b2:	46c0      	nop			@ (mov r8, r8)

100018b4 <runtime_init>:
100018b4:	b570      	push	{r4, r5, r6, lr}
100018b6:	f7ff fde9 	bl	1000148c <runtime_run_initializers>
100018ba:	4d07      	ldr	r5, [pc, #28]	@ (100018d8 <runtime_init+0x24>)
100018bc:	4e07      	ldr	r6, [pc, #28]	@ (100018dc <runtime_init+0x28>)
100018be:	42b5      	cmp	r5, r6
100018c0:	d209      	bcs.n	100018d6 <runtime_init+0x22>
100018c2:	2400      	movs	r4, #0
100018c4:	3e01      	subs	r6, #1
100018c6:	1b76      	subs	r6, r6, r5
100018c8:	08b6      	lsrs	r6, r6, #2
100018ca:	cd08      	ldmia	r5!, {r3}
100018cc:	4798      	blx	r3
100018ce:	0023      	movs	r3, r4
100018d0:	3401      	adds	r4, #1
100018d2:	42b3      	cmp	r3, r6
100018d4:	d1f9      	bne.n	100018ca <runtime_init+0x16>
100018d6:	bd70      	pop	{r4, r5, r6, pc}
100018d8:	10001e54 	.word	0x10001e54
100018dc:	10001e58 	.word	0x10001e58

100018e0 <stdio_out_chars_no_crlf>:
100018e0:	0003      	movs	r3, r0
100018e2:	b510      	push	{r4, lr}
100018e4:	0008      	movs	r0, r1
100018e6:	0011      	movs	r1, r2
100018e8:	681b      	ldr	r3, [r3, #0]
100018ea:	4798      	blx	r3
100018ec:	bd10      	pop	{r4, pc}
100018ee:	46c0      	nop			@ (mov r8, r8)

100018f0 <stdio_out_chars_crlf>:
100018f0:	b5f0      	push	{r4, r5, r6, r7, lr}
100018f2:	46c6      	mov	lr, r8
100018f4:	b500      	push	{lr}
100018f6:	7d43      	ldrb	r3, [r0, #21]
100018f8:	0007      	movs	r7, r0
100018fa:	000d      	movs	r5, r1
100018fc:	0016      	movs	r6, r2
100018fe:	2b00      	cmp	r3, #0
10001900:	d038      	beq.n	10001974 <stdio_out_chars_crlf+0x84>
10001902:	2a00      	cmp	r2, #0
10001904:	dd2e      	ble.n	10001964 <stdio_out_chars_crlf+0x74>
10001906:	2100      	movs	r1, #0
10001908:	1e6a      	subs	r2, r5, #1
1000190a:	4690      	mov	r8, r2
1000190c:	5c6a      	ldrb	r2, [r5, r1]
1000190e:	7d03      	ldrb	r3, [r0, #20]
10001910:	1c4c      	adds	r4, r1, #1
10001912:	2000      	movs	r0, #0
10001914:	2a0a      	cmp	r2, #10
10001916:	d00c      	beq.n	10001932 <stdio_out_chars_crlf+0x42>
10001918:	42a6      	cmp	r6, r4
1000191a:	d016      	beq.n	1000194a <stdio_out_chars_crlf+0x5a>
1000191c:	4643      	mov	r3, r8
1000191e:	5d1b      	ldrb	r3, [r3, r4]
10001920:	0021      	movs	r1, r4
10001922:	3b0d      	subs	r3, #13
10001924:	425a      	negs	r2, r3
10001926:	4153      	adcs	r3, r2
10001928:	5c6a      	ldrb	r2, [r5, r1]
1000192a:	b2db      	uxtb	r3, r3
1000192c:	1c4c      	adds	r4, r1, #1
1000192e:	2a0a      	cmp	r2, #10
10001930:	d1f2      	bne.n	10001918 <stdio_out_chars_crlf+0x28>
10001932:	2b00      	cmp	r3, #0
10001934:	d1f0      	bne.n	10001918 <stdio_out_chars_crlf+0x28>
10001936:	4288      	cmp	r0, r1
10001938:	db17      	blt.n	1000196a <stdio_out_chars_crlf+0x7a>
1000193a:	2102      	movs	r1, #2
1000193c:	4810      	ldr	r0, [pc, #64]	@ (10001980 <stdio_out_chars_crlf+0x90>)
1000193e:	683b      	ldr	r3, [r7, #0]
10001940:	4798      	blx	r3
10001942:	42a6      	cmp	r6, r4
10001944:	d007      	beq.n	10001956 <stdio_out_chars_crlf+0x66>
10001946:	0020      	movs	r0, r4
10001948:	e7e8      	b.n	1000191c <stdio_out_chars_crlf+0x2c>
1000194a:	4286      	cmp	r6, r0
1000194c:	dd03      	ble.n	10001956 <stdio_out_chars_crlf+0x66>
1000194e:	1a31      	subs	r1, r6, r0
10001950:	683b      	ldr	r3, [r7, #0]
10001952:	1828      	adds	r0, r5, r0
10001954:	4798      	blx	r3
10001956:	19ad      	adds	r5, r5, r6
10001958:	3d01      	subs	r5, #1
1000195a:	782b      	ldrb	r3, [r5, #0]
1000195c:	3b0d      	subs	r3, #13
1000195e:	425a      	negs	r2, r3
10001960:	4153      	adcs	r3, r2
10001962:	753b      	strb	r3, [r7, #20]
10001964:	bc80      	pop	{r7}
10001966:	46b8      	mov	r8, r7
10001968:	bdf0      	pop	{r4, r5, r6, r7, pc}
1000196a:	1a09      	subs	r1, r1, r0
1000196c:	683b      	ldr	r3, [r7, #0]
1000196e:	1828      	adds	r0, r5, r0
10001970:	4798      	blx	r3
10001972:	e7e2      	b.n	1000193a <stdio_out_chars_crlf+0x4a>
10001974:	6803      	ldr	r3, [r0, #0]
10001976:	0011      	movs	r1, r2
10001978:	0028      	movs	r0, r5
1000197a:	4798      	blx	r3
1000197c:	e7f2      	b.n	10001964 <stdio_out_chars_crlf+0x74>
1000197e:	46c0      	nop			@ (mov r8, r8)
10001980:	10001f58 	.word	0x10001f58

10001984 <stdio_put_string>:
10001984:	b5f0      	push	{r4, r5, r6, r7, lr}
10001986:	46de      	mov	lr, fp
10001988:	4657      	mov	r7, sl
1000198a:	464e      	mov	r6, r9
1000198c:	4645      	mov	r5, r8
1000198e:	b5e0      	push	{r5, r6, r7, lr}
10001990:	b085      	sub	sp, #20
10001992:	0017      	movs	r7, r2
10001994:	001c      	movs	r4, r3
10001996:	0006      	movs	r6, r0
10001998:	000d      	movs	r5, r1
1000199a:	f7ff f8ff 	bl	10000b9c <time_us_64>
1000199e:	2300      	movs	r3, #0
100019a0:	4a31      	ldr	r2, [pc, #196]	@ (10001a68 <stdio_put_string+0xe4>)
100019a2:	1812      	adds	r2, r2, r0
100019a4:	414b      	adcs	r3, r1
100019a6:	2180      	movs	r1, #128	@ 0x80
100019a8:	0609      	lsls	r1, r1, #24
100019aa:	428b      	cmp	r3, r1
100019ac:	d302      	bcc.n	100019b4 <stdio_put_string+0x30>
100019ae:	2201      	movs	r2, #1
100019b0:	4b2e      	ldr	r3, [pc, #184]	@ (10001a6c <stdio_put_string+0xe8>)
100019b2:	4252      	negs	r2, r2
100019b4:	492e      	ldr	r1, [pc, #184]	@ (10001a70 <stdio_put_string+0xec>)
100019b6:	0008      	movs	r0, r1
100019b8:	468a      	mov	sl, r1
100019ba:	f000 fa25 	bl	10001e08 <__mutex_try_enter_block_until_veneer>
100019be:	9001      	str	r0, [sp, #4]
100019c0:	1c6b      	adds	r3, r5, #1
100019c2:	d103      	bne.n	100019cc <stdio_put_string+0x48>
100019c4:	0030      	movs	r0, r6
100019c6:	f000 f9dd 	bl	10001d84 <strlen>
100019ca:	0005      	movs	r5, r0
100019cc:	2c00      	cmp	r4, #0
100019ce:	d026      	beq.n	10001a1e <stdio_put_string+0x9a>
100019d0:	4b28      	ldr	r3, [pc, #160]	@ (10001a74 <stdio_put_string+0xf0>)
100019d2:	4698      	mov	r8, r3
100019d4:	4b28      	ldr	r3, [pc, #160]	@ (10001a78 <stdio_put_string+0xf4>)
100019d6:	681c      	ldr	r4, [r3, #0]
100019d8:	2c00      	cmp	r4, #0
100019da:	d015      	beq.n	10001a08 <stdio_put_string+0x84>
100019dc:	2f00      	cmp	r7, #0
100019de:	d121      	bne.n	10001a24 <stdio_put_string+0xa0>
100019e0:	4f26      	ldr	r7, [pc, #152]	@ (10001a7c <stdio_put_string+0xf8>)
100019e2:	e002      	b.n	100019ea <stdio_put_string+0x66>
100019e4:	6924      	ldr	r4, [r4, #16]
100019e6:	2c00      	cmp	r4, #0
100019e8:	d00e      	beq.n	10001a08 <stdio_put_string+0x84>
100019ea:	6823      	ldr	r3, [r4, #0]
100019ec:	2b00      	cmp	r3, #0
100019ee:	d0f9      	beq.n	100019e4 <stdio_put_string+0x60>
100019f0:	683b      	ldr	r3, [r7, #0]
100019f2:	2b00      	cmp	r3, #0
100019f4:	d001      	beq.n	100019fa <stdio_put_string+0x76>
100019f6:	429c      	cmp	r4, r3
100019f8:	d1f4      	bne.n	100019e4 <stdio_put_string+0x60>
100019fa:	0020      	movs	r0, r4
100019fc:	002a      	movs	r2, r5
100019fe:	0031      	movs	r1, r6
10001a00:	47c0      	blx	r8
10001a02:	6924      	ldr	r4, [r4, #16]
10001a04:	2c00      	cmp	r4, #0
10001a06:	d1f0      	bne.n	100019ea <stdio_put_string+0x66>
10001a08:	9b01      	ldr	r3, [sp, #4]
10001a0a:	2b00      	cmp	r3, #0
10001a0c:	d128      	bne.n	10001a60 <stdio_put_string+0xdc>
10001a0e:	0028      	movs	r0, r5
10001a10:	b005      	add	sp, #20
10001a12:	bcf0      	pop	{r4, r5, r6, r7}
10001a14:	46bb      	mov	fp, r7
10001a16:	46b2      	mov	sl, r6
10001a18:	46a9      	mov	r9, r5
10001a1a:	46a0      	mov	r8, r4
10001a1c:	bdf0      	pop	{r4, r5, r6, r7, pc}
10001a1e:	4b18      	ldr	r3, [pc, #96]	@ (10001a80 <stdio_put_string+0xfc>)
10001a20:	4698      	mov	r8, r3
10001a22:	e7d7      	b.n	100019d4 <stdio_put_string+0x50>
10001a24:	4b15      	ldr	r3, [pc, #84]	@ (10001a7c <stdio_put_string+0xf8>)
10001a26:	4699      	mov	r9, r3
10001a28:	ab02      	add	r3, sp, #8
10001a2a:	1ddf      	adds	r7, r3, #7
10001a2c:	230a      	movs	r3, #10
10001a2e:	469b      	mov	fp, r3
10001a30:	e002      	b.n	10001a38 <stdio_put_string+0xb4>
10001a32:	6924      	ldr	r4, [r4, #16]
10001a34:	2c00      	cmp	r4, #0
10001a36:	d0e7      	beq.n	10001a08 <stdio_put_string+0x84>
10001a38:	6823      	ldr	r3, [r4, #0]
10001a3a:	2b00      	cmp	r3, #0
10001a3c:	d0f9      	beq.n	10001a32 <stdio_put_string+0xae>
10001a3e:	464b      	mov	r3, r9
10001a40:	681b      	ldr	r3, [r3, #0]
10001a42:	2b00      	cmp	r3, #0
10001a44:	d001      	beq.n	10001a4a <stdio_put_string+0xc6>
10001a46:	42a3      	cmp	r3, r4
10001a48:	d1f3      	bne.n	10001a32 <stdio_put_string+0xae>
10001a4a:	002a      	movs	r2, r5
10001a4c:	0031      	movs	r1, r6
10001a4e:	0020      	movs	r0, r4
10001a50:	47c0      	blx	r8
10001a52:	465b      	mov	r3, fp
10001a54:	2201      	movs	r2, #1
10001a56:	0039      	movs	r1, r7
10001a58:	0020      	movs	r0, r4
10001a5a:	703b      	strb	r3, [r7, #0]
10001a5c:	47c0      	blx	r8
10001a5e:	e7e8      	b.n	10001a32 <stdio_put_string+0xae>
10001a60:	4650      	mov	r0, sl
10001a62:	f000 f9c1 	bl	10001de8 <__mutex_exit_veneer>
10001a66:	e7d2      	b.n	10001a0e <stdio_put_string+0x8a>
10001a68:	000f4240 	.word	0x000f4240
10001a6c:	7fffffff 	.word	0x7fffffff
10001a70:	200002f8 	.word	0x200002f8
10001a74:	100018f1 	.word	0x100018f1
10001a78:	200006b4 	.word	0x200006b4
10001a7c:	200006b8 	.word	0x200006b8
10001a80:	100018e1 	.word	0x100018e1

10001a84 <stdio_set_driver_enabled>:
10001a84:	4a0a      	ldr	r2, [pc, #40]	@ (10001ab0 <stdio_set_driver_enabled+0x2c>)
10001a86:	6813      	ldr	r3, [r2, #0]
10001a88:	2b00      	cmp	r3, #0
10001a8a:	d105      	bne.n	10001a98 <stdio_set_driver_enabled+0x14>
10001a8c:	e00c      	b.n	10001aa8 <stdio_set_driver_enabled+0x24>
10001a8e:	001a      	movs	r2, r3
10001a90:	691b      	ldr	r3, [r3, #16]
10001a92:	3210      	adds	r2, #16
10001a94:	2b00      	cmp	r3, #0
10001a96:	d007      	beq.n	10001aa8 <stdio_set_driver_enabled+0x24>
10001a98:	4298      	cmp	r0, r3
10001a9a:	d1f8      	bne.n	10001a8e <stdio_set_driver_enabled+0xa>
10001a9c:	2900      	cmp	r1, #0
10001a9e:	d102      	bne.n	10001aa6 <stdio_set_driver_enabled+0x22>
10001aa0:	6903      	ldr	r3, [r0, #16]
10001aa2:	6013      	str	r3, [r2, #0]
10001aa4:	6101      	str	r1, [r0, #16]
10001aa6:	4770      	bx	lr
10001aa8:	2900      	cmp	r1, #0
10001aaa:	d0fc      	beq.n	10001aa6 <stdio_set_driver_enabled+0x22>
10001aac:	6010      	str	r0, [r2, #0]
10001aae:	e7fa      	b.n	10001aa6 <stdio_set_driver_enabled+0x22>
10001ab0:	200006b4 	.word	0x200006b4

10001ab4 <stdio_init_all>:
10001ab4:	b510      	push	{r4, lr}
10001ab6:	f000 f93d 	bl	10001d34 <stdio_uart_init>
10001aba:	2001      	movs	r0, #1
10001abc:	bd10      	pop	{r4, pc}
10001abe:	46c0      	nop			@ (mov r8, r8)

10001ac0 <__wrap_putchar>:
10001ac0:	b5f0      	push	{r4, r5, r6, r7, lr}
10001ac2:	46ce      	mov	lr, r9
10001ac4:	4647      	mov	r7, r8
10001ac6:	b580      	push	{r7, lr}
10001ac8:	b083      	sub	sp, #12
10001aca:	466b      	mov	r3, sp
10001acc:	0006      	movs	r6, r0
10001ace:	1ddd      	adds	r5, r3, #7
10001ad0:	7028      	strb	r0, [r5, #0]
10001ad2:	f7ff f863 	bl	10000b9c <time_us_64>
10001ad6:	2300      	movs	r3, #0
10001ad8:	4a1a      	ldr	r2, [pc, #104]	@ (10001b44 <__wrap_putchar+0x84>)
10001ada:	1812      	adds	r2, r2, r0
10001adc:	414b      	adcs	r3, r1
10001ade:	2180      	movs	r1, #128	@ 0x80
10001ae0:	0609      	lsls	r1, r1, #24
10001ae2:	428b      	cmp	r3, r1
10001ae4:	d302      	bcc.n	10001aec <__wrap_putchar+0x2c>
10001ae6:	2201      	movs	r2, #1
10001ae8:	4b17      	ldr	r3, [pc, #92]	@ (10001b48 <__wrap_putchar+0x88>)
10001aea:	4252      	negs	r2, r2
10001aec:	4917      	ldr	r1, [pc, #92]	@ (10001b4c <__wrap_putchar+0x8c>)
10001aee:	0008      	movs	r0, r1
10001af0:	4688      	mov	r8, r1
10001af2:	f000 f989 	bl	10001e08 <__mutex_try_enter_block_until_veneer>
10001af6:	4b16      	ldr	r3, [pc, #88]	@ (10001b50 <__wrap_putchar+0x90>)
10001af8:	4681      	mov	r9, r0
10001afa:	681c      	ldr	r4, [r3, #0]
10001afc:	2c00      	cmp	r4, #0
10001afe:	d014      	beq.n	10001b2a <__wrap_putchar+0x6a>
10001b00:	4f14      	ldr	r7, [pc, #80]	@ (10001b54 <__wrap_putchar+0x94>)
10001b02:	e002      	b.n	10001b0a <__wrap_putchar+0x4a>
10001b04:	6924      	ldr	r4, [r4, #16]
10001b06:	2c00      	cmp	r4, #0
10001b08:	d00f      	beq.n	10001b2a <__wrap_putchar+0x6a>
10001b0a:	6823      	ldr	r3, [r4, #0]
10001b0c:	2b00      	cmp	r3, #0
10001b0e:	d0f9      	beq.n	10001b04 <__wrap_putchar+0x44>
10001b10:	683b      	ldr	r3, [r7, #0]
10001b12:	2b00      	cmp	r3, #0
10001b14:	d001      	beq.n	10001b1a <__wrap_putchar+0x5a>
10001b16:	429c      	cmp	r4, r3
10001b18:	d1f4      	bne.n	10001b04 <__wrap_putchar+0x44>
10001b1a:	0020      	movs	r0, r4
10001b1c:	2201      	movs	r2, #1
10001b1e:	0029      	movs	r1, r5
10001b20:	f7ff fee6 	bl	100018f0 <stdio_out_chars_crlf>
10001b24:	6924      	ldr	r4, [r4, #16]
10001b26:	2c00      	cmp	r4, #0
10001b28:	d1ef      	bne.n	10001b0a <__wrap_putchar+0x4a>
10001b2a:	464b      	mov	r3, r9
10001b2c:	2b00      	cmp	r3, #0
10001b2e:	d105      	bne.n	10001b3c <__wrap_putchar+0x7c>
10001b30:	0030      	movs	r0, r6
10001b32:	b003      	add	sp, #12
10001b34:	bcc0      	pop	{r6, r7}
10001b36:	46b9      	mov	r9, r7
10001b38:	46b0      	mov	r8, r6
10001b3a:	bdf0      	pop	{r4, r5, r6, r7, pc}
10001b3c:	4640      	mov	r0, r8
10001b3e:	f000 f953 	bl	10001de8 <__mutex_exit_veneer>
10001b42:	e7f5      	b.n	10001b30 <__wrap_putchar+0x70>
10001b44:	000f4240 	.word	0x000f4240
10001b48:	7fffffff 	.word	0x7fffffff
10001b4c:	200002f8 	.word	0x200002f8
10001b50:	200006b4 	.word	0x200006b4
10001b54:	200006b8 	.word	0x200006b8

10001b58 <__wrap_puts>:
10001b58:	b570      	push	{r4, r5, r6, lr}
10001b5a:	0004      	movs	r4, r0
10001b5c:	f000 f912 	bl	10001d84 <strlen>
10001b60:	2301      	movs	r3, #1
10001b62:	0001      	movs	r1, r0
10001b64:	0005      	movs	r5, r0
10001b66:	2201      	movs	r2, #1
10001b68:	0020      	movs	r0, r4
10001b6a:	f7ff ff0b 	bl	10001984 <stdio_put_string>
10001b6e:	4b08      	ldr	r3, [pc, #32]	@ (10001b90 <__wrap_puts+0x38>)
10001b70:	681c      	ldr	r4, [r3, #0]
10001b72:	2c00      	cmp	r4, #0
10001b74:	d006      	beq.n	10001b84 <__wrap_puts+0x2c>
10001b76:	6863      	ldr	r3, [r4, #4]
10001b78:	2b00      	cmp	r3, #0
10001b7a:	d005      	beq.n	10001b88 <__wrap_puts+0x30>
10001b7c:	4798      	blx	r3
10001b7e:	6924      	ldr	r4, [r4, #16]
10001b80:	2c00      	cmp	r4, #0
10001b82:	d1f8      	bne.n	10001b76 <__wrap_puts+0x1e>
10001b84:	0028      	movs	r0, r5
10001b86:	bd70      	pop	{r4, r5, r6, pc}
10001b88:	6924      	ldr	r4, [r4, #16]
10001b8a:	2c00      	cmp	r4, #0
10001b8c:	d1f3      	bne.n	10001b76 <__wrap_puts+0x1e>
10001b8e:	e7f9      	b.n	10001b84 <__wrap_puts+0x2c>
10001b90:	200006b4 	.word	0x200006b4

10001b94 <stdio_uart_out_chars>:
10001b94:	b5f0      	push	{r4, r5, r6, r7, lr}
10001b96:	2900      	cmp	r1, #0
10001b98:	dd15      	ble.n	10001bc6 <stdio_uart_out_chars+0x32>
10001b9a:	4b0e      	ldr	r3, [pc, #56]	@ (10001bd4 <stdio_uart_out_chars+0x40>)
10001b9c:	270d      	movs	r7, #13
10001b9e:	681a      	ldr	r2, [r3, #0]
10001ba0:	4b0d      	ldr	r3, [pc, #52]	@ (10001bd8 <stdio_uart_out_chars+0x44>)
10001ba2:	4c0e      	ldr	r4, [pc, #56]	@ (10001bdc <stdio_uart_out_chars+0x48>)
10001ba4:	18d3      	adds	r3, r2, r3
10001ba6:	425d      	negs	r5, r3
10001ba8:	416b      	adcs	r3, r5
10001baa:	1845      	adds	r5, r0, r1
10001bac:	2120      	movs	r1, #32
10001bae:	005b      	lsls	r3, r3, #1
10001bb0:	5f1e      	ldrsh	r6, [r3, r4]
10001bb2:	7804      	ldrb	r4, [r0, #0]
10001bb4:	42a6      	cmp	r6, r4
10001bb6:	d007      	beq.n	10001bc8 <stdio_uart_out_chars+0x34>
10001bb8:	6993      	ldr	r3, [r2, #24]
10001bba:	4219      	tst	r1, r3
10001bbc:	d1fc      	bne.n	10001bb8 <stdio_uart_out_chars+0x24>
10001bbe:	3001      	adds	r0, #1
10001bc0:	6014      	str	r4, [r2, #0]
10001bc2:	42a8      	cmp	r0, r5
10001bc4:	d1f5      	bne.n	10001bb2 <stdio_uart_out_chars+0x1e>
10001bc6:	bdf0      	pop	{r4, r5, r6, r7, pc}
10001bc8:	6993      	ldr	r3, [r2, #24]
10001bca:	4219      	tst	r1, r3
10001bcc:	d1fc      	bne.n	10001bc8 <stdio_uart_out_chars+0x34>
10001bce:	6017      	str	r7, [r2, #0]
10001bd0:	e7f2      	b.n	10001bb8 <stdio_uart_out_chars+0x24>
10001bd2:	46c0      	nop			@ (mov r8, r8)
10001bd4:	20000704 	.word	0x20000704
10001bd8:	bffc8000 	.word	0xbffc8000
10001bdc:	20000700 	.word	0x20000700

10001be0 <stdio_uart_in_chars>:
10001be0:	4b20      	ldr	r3, [pc, #128]	@ (10001c64 <stdio_uart_in_chars+0x84>)
10001be2:	b570      	push	{r4, r5, r6, lr}
10001be4:	0004      	movs	r4, r0
10001be6:	1e0d      	subs	r5, r1, #0
10001be8:	681e      	ldr	r6, [r3, #0]
10001bea:	dd2a      	ble.n	10001c42 <stdio_uart_in_chars+0x62>
10001bec:	2000      	movs	r0, #0
10001bee:	2110      	movs	r1, #16
10001bf0:	4b1d      	ldr	r3, [pc, #116]	@ (10001c68 <stdio_uart_in_chars+0x88>)
10001bf2:	3c01      	subs	r4, #1
10001bf4:	681a      	ldr	r2, [r3, #0]
10001bf6:	6993      	ldr	r3, [r2, #24]
10001bf8:	4219      	tst	r1, r3
10001bfa:	d114      	bne.n	10001c26 <stdio_uart_in_chars+0x46>
10001bfc:	3001      	adds	r0, #1
10001bfe:	6993      	ldr	r3, [r2, #24]
10001c00:	4219      	tst	r1, r3
10001c02:	d1fc      	bne.n	10001bfe <stdio_uart_in_chars+0x1e>
10001c04:	6813      	ldr	r3, [r2, #0]
10001c06:	5423      	strb	r3, [r4, r0]
10001c08:	4285      	cmp	r5, r0
10001c0a:	d1f4      	bne.n	10001bf6 <stdio_uart_in_chars+0x16>
10001c0c:	2e00      	cmp	r6, #0
10001c0e:	d008      	beq.n	10001c22 <stdio_uart_in_chars+0x42>
10001c10:	2350      	movs	r3, #80	@ 0x50
10001c12:	6393      	str	r3, [r2, #56]	@ 0x38
10001c14:	6b51      	ldr	r1, [r2, #52]	@ 0x34
10001c16:	3b18      	subs	r3, #24
10001c18:	400b      	ands	r3, r1
10001c1a:	4914      	ldr	r1, [pc, #80]	@ (10001c6c <stdio_uart_in_chars+0x8c>)
10001c1c:	468c      	mov	ip, r1
10001c1e:	4462      	add	r2, ip
10001c20:	6013      	str	r3, [r2, #0]
10001c22:	0028      	movs	r0, r5
10001c24:	e00c      	b.n	10001c40 <stdio_uart_in_chars+0x60>
10001c26:	2e00      	cmp	r6, #0
10001c28:	d008      	beq.n	10001c3c <stdio_uart_in_chars+0x5c>
10001c2a:	2350      	movs	r3, #80	@ 0x50
10001c2c:	6393      	str	r3, [r2, #56]	@ 0x38
10001c2e:	6b51      	ldr	r1, [r2, #52]	@ 0x34
10001c30:	3b18      	subs	r3, #24
10001c32:	400b      	ands	r3, r1
10001c34:	490d      	ldr	r1, [pc, #52]	@ (10001c6c <stdio_uart_in_chars+0x8c>)
10001c36:	468c      	mov	ip, r1
10001c38:	4462      	add	r2, ip
10001c3a:	6013      	str	r3, [r2, #0]
10001c3c:	2800      	cmp	r0, #0
10001c3e:	d00d      	beq.n	10001c5c <stdio_uart_in_chars+0x7c>
10001c40:	bd70      	pop	{r4, r5, r6, pc}
10001c42:	2e00      	cmp	r6, #0
10001c44:	d00a      	beq.n	10001c5c <stdio_uart_in_chars+0x7c>
10001c46:	2250      	movs	r2, #80	@ 0x50
10001c48:	4b07      	ldr	r3, [pc, #28]	@ (10001c68 <stdio_uart_in_chars+0x88>)
10001c4a:	681b      	ldr	r3, [r3, #0]
10001c4c:	639a      	str	r2, [r3, #56]	@ 0x38
10001c4e:	6b59      	ldr	r1, [r3, #52]	@ 0x34
10001c50:	3a18      	subs	r2, #24
10001c52:	400a      	ands	r2, r1
10001c54:	4905      	ldr	r1, [pc, #20]	@ (10001c6c <stdio_uart_in_chars+0x8c>)
10001c56:	468c      	mov	ip, r1
10001c58:	4463      	add	r3, ip
10001c5a:	601a      	str	r2, [r3, #0]
10001c5c:	2003      	movs	r0, #3
10001c5e:	4240      	negs	r0, r0
10001c60:	e7ee      	b.n	10001c40 <stdio_uart_in_chars+0x60>
10001c62:	46c0      	nop			@ (mov r8, r8)
10001c64:	20000680 	.word	0x20000680
10001c68:	20000704 	.word	0x20000704
10001c6c:	00001034 	.word	0x00001034

10001c70 <on_uart_rx>:
10001c70:	4b06      	ldr	r3, [pc, #24]	@ (10001c8c <on_uart_rx+0x1c>)
10001c72:	b510      	push	{r4, lr}
10001c74:	681b      	ldr	r3, [r3, #0]
10001c76:	2b00      	cmp	r3, #0
10001c78:	d006      	beq.n	10001c88 <on_uart_rx+0x18>
10001c7a:	2100      	movs	r1, #0
10001c7c:	4a04      	ldr	r2, [pc, #16]	@ (10001c90 <on_uart_rx+0x20>)
10001c7e:	6812      	ldr	r2, [r2, #0]
10001c80:	6391      	str	r1, [r2, #56]	@ 0x38
10001c82:	4a04      	ldr	r2, [pc, #16]	@ (10001c94 <on_uart_rx+0x24>)
10001c84:	6810      	ldr	r0, [r2, #0]
10001c86:	4798      	blx	r3
10001c88:	bd10      	pop	{r4, pc}
10001c8a:	46c0      	nop			@ (mov r8, r8)
10001c8c:	20000680 	.word	0x20000680
10001c90:	20000704 	.word	0x20000704
10001c94:	20000684 	.word	0x20000684

10001c98 <stdio_uart_out_flush>:
10001c98:	2208      	movs	r2, #8
10001c9a:	4902      	ldr	r1, [pc, #8]	@ (10001ca4 <stdio_uart_out_flush+0xc>)
10001c9c:	698b      	ldr	r3, [r1, #24]
10001c9e:	421a      	tst	r2, r3
10001ca0:	d1fc      	bne.n	10001c9c <stdio_uart_out_flush+0x4>
10001ca2:	4770      	bx	lr
10001ca4:	40034000 	.word	0x40034000

10001ca8 <stdio_uart_set_chars_available_callback>:
10001ca8:	4b1c      	ldr	r3, [pc, #112]	@ (10001d1c <stdio_uart_set_chars_available_callback+0x74>)
10001caa:	b5f0      	push	{r4, r5, r6, r7, lr}
10001cac:	681a      	ldr	r2, [r3, #0]
10001cae:	46c6      	mov	lr, r8
10001cb0:	4698      	mov	r8, r3
10001cb2:	4b1b      	ldr	r3, [pc, #108]	@ (10001d20 <stdio_uart_set_chars_available_callback+0x78>)
10001cb4:	000e      	movs	r6, r1
10001cb6:	18d3      	adds	r3, r2, r3
10001cb8:	4259      	negs	r1, r3
10001cba:	414b      	adcs	r3, r1
10001cbc:	4f19      	ldr	r7, [pc, #100]	@ (10001d24 <stdio_uart_set_chars_available_callback+0x7c>)
10001cbe:	3314      	adds	r3, #20
10001cc0:	001c      	movs	r4, r3
10001cc2:	0005      	movs	r5, r0
10001cc4:	b500      	push	{lr}
10001cc6:	683b      	ldr	r3, [r7, #0]
10001cc8:	2800      	cmp	r0, #0
10001cca:	d007      	beq.n	10001cdc <stdio_uart_set_chars_available_callback+0x34>
10001ccc:	2b00      	cmp	r3, #0
10001cce:	d011      	beq.n	10001cf4 <stdio_uart_set_chars_available_callback+0x4c>
10001cd0:	4b15      	ldr	r3, [pc, #84]	@ (10001d28 <stdio_uart_set_chars_available_callback+0x80>)
10001cd2:	603d      	str	r5, [r7, #0]
10001cd4:	601e      	str	r6, [r3, #0]
10001cd6:	bc80      	pop	{r7}
10001cd8:	46b8      	mov	r8, r7
10001cda:	bdf0      	pop	{r4, r5, r6, r7, pc}
10001cdc:	2b00      	cmp	r3, #0
10001cde:	d0f7      	beq.n	10001cd0 <stdio_uart_set_chars_available_callback+0x28>
10001ce0:	6390      	str	r0, [r2, #56]	@ 0x38
10001ce2:	2100      	movs	r1, #0
10001ce4:	0020      	movs	r0, r4
10001ce6:	f7fe ffa9 	bl	10000c3c <irq_set_enabled>
10001cea:	0020      	movs	r0, r4
10001cec:	490f      	ldr	r1, [pc, #60]	@ (10001d2c <stdio_uart_set_chars_available_callback+0x84>)
10001cee:	f7fe ffe1 	bl	10000cb4 <irq_remove_handler>
10001cf2:	e7ed      	b.n	10001cd0 <stdio_uart_set_chars_available_callback+0x28>
10001cf4:	0020      	movs	r0, r4
10001cf6:	490d      	ldr	r1, [pc, #52]	@ (10001d2c <stdio_uart_set_chars_available_callback+0x84>)
10001cf8:	f7fe ffb2 	bl	10000c60 <irq_set_exclusive_handler>
10001cfc:	2101      	movs	r1, #1
10001cfe:	0020      	movs	r0, r4
10001d00:	f7fe ff9c 	bl	10000c3c <irq_set_enabled>
10001d04:	4643      	mov	r3, r8
10001d06:	2250      	movs	r2, #80	@ 0x50
10001d08:	681b      	ldr	r3, [r3, #0]
10001d0a:	639a      	str	r2, [r3, #56]	@ 0x38
10001d0c:	6b59      	ldr	r1, [r3, #52]	@ 0x34
10001d0e:	3a18      	subs	r2, #24
10001d10:	400a      	ands	r2, r1
10001d12:	4907      	ldr	r1, [pc, #28]	@ (10001d30 <stdio_uart_set_chars_available_callback+0x88>)
10001d14:	468c      	mov	ip, r1
10001d16:	4463      	add	r3, ip
10001d18:	601a      	str	r2, [r3, #0]
10001d1a:	e7d9      	b.n	10001cd0 <stdio_uart_set_chars_available_callback+0x28>
10001d1c:	20000704 	.word	0x20000704
10001d20:	bffc8000 	.word	0xbffc8000
10001d24:	20000680 	.word	0x20000680
10001d28:	20000684 	.word	0x20000684
10001d2c:	10001c71 	.word	0x10001c71
10001d30:	00001034 	.word	0x00001034

10001d34 <stdio_uart_init>:
10001d34:	4b0d      	ldr	r3, [pc, #52]	@ (10001d6c <stdio_uart_init+0x38>)
10001d36:	b510      	push	{r4, lr}
10001d38:	781b      	ldrb	r3, [r3, #0]
10001d3a:	4b0d      	ldr	r3, [pc, #52]	@ (10001d70 <stdio_uart_init+0x3c>)
10001d3c:	4c0d      	ldr	r4, [pc, #52]	@ (10001d74 <stdio_uart_init+0x40>)
10001d3e:	781b      	ldrb	r3, [r3, #0]
10001d40:	4b0d      	ldr	r3, [pc, #52]	@ (10001d78 <stdio_uart_init+0x44>)
10001d42:	2102      	movs	r1, #2
10001d44:	781b      	ldrb	r3, [r3, #0]
10001d46:	4b0d      	ldr	r3, [pc, #52]	@ (10001d7c <stdio_uart_init+0x48>)
10001d48:	2000      	movs	r0, #0
10001d4a:	6023      	str	r3, [r4, #0]
10001d4c:	f7ff fa1a 	bl	10001184 <gpio_set_function>
10001d50:	2102      	movs	r1, #2
10001d52:	2001      	movs	r0, #1
10001d54:	f7ff fa16 	bl	10001184 <gpio_set_function>
10001d58:	21e1      	movs	r1, #225	@ 0xe1
10001d5a:	6820      	ldr	r0, [r4, #0]
10001d5c:	0249      	lsls	r1, r1, #9
10001d5e:	f7ff fafd 	bl	1000135c <uart_init>
10001d62:	2101      	movs	r1, #1
10001d64:	4806      	ldr	r0, [pc, #24]	@ (10001d80 <stdio_uart_init+0x4c>)
10001d66:	f7ff fe8d 	bl	10001a84 <stdio_set_driver_enabled>
10001d6a:	bd10      	pop	{r4, pc}
10001d6c:	10001f98 	.word	0x10001f98
10001d70:	10001f94 	.word	0x10001f94
10001d74:	20000704 	.word	0x20000704
10001d78:	10001f90 	.word	0x10001f90
10001d7c:	40034000 	.word	0x40034000
10001d80:	200002e0 	.word	0x200002e0

10001d84 <strlen>:
10001d84:	b510      	push	{r4, lr}
10001d86:	0783      	lsls	r3, r0, #30
10001d88:	d00a      	beq.n	10001da0 <strlen+0x1c>
10001d8a:	0003      	movs	r3, r0
10001d8c:	2103      	movs	r1, #3
10001d8e:	e002      	b.n	10001d96 <strlen+0x12>
10001d90:	3301      	adds	r3, #1
10001d92:	420b      	tst	r3, r1
10001d94:	d005      	beq.n	10001da2 <strlen+0x1e>
10001d96:	781a      	ldrb	r2, [r3, #0]
10001d98:	2a00      	cmp	r2, #0
10001d9a:	d1f9      	bne.n	10001d90 <strlen+0xc>
10001d9c:	1a18      	subs	r0, r3, r0
10001d9e:	bd10      	pop	{r4, pc}
10001da0:	0003      	movs	r3, r0
10001da2:	6819      	ldr	r1, [r3, #0]
10001da4:	4a0c      	ldr	r2, [pc, #48]	@ (10001dd8 <strlen+0x54>)
10001da6:	4c0d      	ldr	r4, [pc, #52]	@ (10001ddc <strlen+0x58>)
10001da8:	188a      	adds	r2, r1, r2
10001daa:	438a      	bics	r2, r1
10001dac:	4222      	tst	r2, r4
10001dae:	d10f      	bne.n	10001dd0 <strlen+0x4c>
10001db0:	6859      	ldr	r1, [r3, #4]
10001db2:	4a09      	ldr	r2, [pc, #36]	@ (10001dd8 <strlen+0x54>)
10001db4:	3304      	adds	r3, #4
10001db6:	188a      	adds	r2, r1, r2
10001db8:	438a      	bics	r2, r1
10001dba:	4222      	tst	r2, r4
10001dbc:	d108      	bne.n	10001dd0 <strlen+0x4c>
10001dbe:	6859      	ldr	r1, [r3, #4]
10001dc0:	4a05      	ldr	r2, [pc, #20]	@ (10001dd8 <strlen+0x54>)
10001dc2:	3304      	adds	r3, #4
10001dc4:	188a      	adds	r2, r1, r2
10001dc6:	438a      	bics	r2, r1
10001dc8:	4222      	tst	r2, r4
10001dca:	d0f1      	beq.n	10001db0 <strlen+0x2c>
10001dcc:	e000      	b.n	10001dd0 <strlen+0x4c>
10001dce:	3301      	adds	r3, #1
10001dd0:	781a      	ldrb	r2, [r3, #0]
10001dd2:	2a00      	cmp	r2, #0
10001dd4:	d1fb      	bne.n	10001dce <strlen+0x4a>
10001dd6:	e7e1      	b.n	10001d9c <strlen+0x18>
10001dd8:	fefefeff 	.word	0xfefefeff
10001ddc:	80808080 	.word	0x80808080

10001de0 <_fini>:
10001de0:	b5f8      	push	{r3, r4, r5, r6, r7, lr}
10001de2:	46c0      	nop			@ (mov r8, r8)
10001de4:	0000      	movs	r0, r0
	...

10001de8 <__mutex_exit_veneer>:
10001de8:	b401      	push	{r0}
10001dea:	4802      	ldr	r0, [pc, #8]	@ (10001df4 <__mutex_exit_veneer+0xc>)
10001dec:	4684      	mov	ip, r0
10001dee:	bc01      	pop	{r0}
10001df0:	4760      	bx	ip
10001df2:	bf00      	nop
10001df4:	20000201 	.word	0x20000201

10001df8 <____aeabi_idiv0_veneer>:
10001df8:	b401      	push	{r0}
10001dfa:	4802      	ldr	r0, [pc, #8]	@ (10001e04 <____aeabi_idiv0_veneer+0xc>)
10001dfc:	4684      	mov	ip, r0
10001dfe:	bc01      	pop	{r0}
10001e00:	4760      	bx	ip
10001e02:	bf00      	nop
10001e04:	20000229 	.word	0x20000229

10001e08 <__mutex_try_enter_block_until_veneer>:
10001e08:	b401      	push	{r0}
10001e0a:	4802      	ldr	r0, [pc, #8]	@ (10001e14 <__mutex_try_enter_block_until_veneer+0xc>)
10001e0c:	4684      	mov	ip, r0
10001e0e:	bc01      	pop	{r0}
10001e10:	4760      	bx	ip
10001e12:	bf00      	nop
10001e14:	20000165 	.word	0x20000165

10001e18 <__pre_init_runtime_init_early_resets>:
10001e18:	100014b5                                ....

10001e1c <__pre_init_runtime_init_usb_power_down>:
10001e1c:	100014e1 1000162d 1000184d 100016ed     ....-...M.......
10001e2c:	100017bd                                ....

10001e30 <__pre_init_runtime_init_clocks>:
10001e30:	10001555                                U...

10001e34 <__pre_init_runtime_init_post_clock_resets>:
10001e34:	100014fd                                ....

10001e38 <__pre_init_runtime_init_rp2040_gpio_ie_disable>:
10001e38:	1000151d                                ....

10001e3c <__pre_init_runtime_init_spin_locks_reset>:
10001e3c:	10001531                                1...

10001e40 <__pre_init_runtime_init_mutex>:
10001e40:	10000f4d                                M...

10001e44 <__pre_init_runtime_init_install_ram_vector_table>:
10001e44:	10001539                                9...

10001e48 <__pre_init_runtime_init_default_alarm_pool>:
10001e48:	100008f5                                ....

10001e4c <__pre_init_first_per_core_initializer>:
10001e4c:	1000147d                                }...

10001e50 <__pre_init_runtime_init_per_core_irq_priorities>:
10001e50:	10000c19                                ....

10001e54 <__frame_dummy_init_array_entry>:
10001e54:	100002b1                                ....

Disassembly of section .data:

200000c0 <i2c_slave_irq_handler>:
200000c0:	b5f0      	push	{r4, r5, r6, r7, lr}
200000c2:	46c6      	mov	lr, r8
200000c4:	b500      	push	{lr}
200000c6:	f3ef 8305 	mrs	r3, IPSR
200000ca:	001e      	movs	r6, r3
200000cc:	3e27      	subs	r6, #39	@ 0x27
200000ce:	2b27      	cmp	r3, #39	@ 0x27
200000d0:	d039      	beq.n	20000146 <i2c_slave_irq_handler+0x86>
200000d2:	4f21      	ldr	r7, [pc, #132]	@ (20000158 <i2c_slave_irq_handler+0x98>)
200000d4:	683d      	ldr	r5, [r7, #0]
200000d6:	6aec      	ldr	r4, [r5, #44]	@ 0x2c
200000d8:	2c00      	cmp	r4, #0
200000da:	d031      	beq.n	20000140 <i2c_slave_irq_handler+0x80>
200000dc:	2280      	movs	r2, #128	@ 0x80
200000de:	2380      	movs	r3, #128	@ 0x80
200000e0:	00d2      	lsls	r2, r2, #3
200000e2:	009b      	lsls	r3, r3, #2
200000e4:	4022      	ands	r2, r4
200000e6:	4023      	ands	r3, r4
200000e8:	0661      	lsls	r1, r4, #25
200000ea:	d52e      	bpl.n	2000014a <i2c_slave_irq_handler+0x8a>
200000ec:	6d69      	ldr	r1, [r5, #84]	@ 0x54
200000ee:	2a00      	cmp	r2, #0
200000f0:	d000      	beq.n	200000f4 <i2c_slave_irq_handler+0x34>
200000f2:	6e6a      	ldr	r2, [r5, #100]	@ 0x64
200000f4:	2b00      	cmp	r3, #0
200000f6:	d12c      	bne.n	20000152 <i2c_slave_irq_handler+0x92>
200000f8:	4b18      	ldr	r3, [pc, #96]	@ (2000015c <i2c_slave_irq_handler+0x9c>)
200000fa:	00f2      	lsls	r2, r6, #3
200000fc:	1899      	adds	r1, r3, r2
200000fe:	4688      	mov	r8, r1
20000100:	7909      	ldrb	r1, [r1, #4]
20000102:	2900      	cmp	r1, #0
20000104:	d006      	beq.n	20000114 <i2c_slave_irq_handler+0x54>
20000106:	58d3      	ldr	r3, [r2, r3]
20000108:	2102      	movs	r1, #2
2000010a:	0038      	movs	r0, r7
2000010c:	4798      	blx	r3
2000010e:	2300      	movs	r3, #0
20000110:	4642      	mov	r2, r8
20000112:	7113      	strb	r3, [r2, #4]
20000114:	0763      	lsls	r3, r4, #29
20000116:	d508      	bpl.n	2000012a <i2c_slave_irq_handler+0x6a>
20000118:	2001      	movs	r0, #1
2000011a:	4b10      	ldr	r3, [pc, #64]	@ (2000015c <i2c_slave_irq_handler+0x9c>)
2000011c:	00f2      	lsls	r2, r6, #3
2000011e:	1899      	adds	r1, r3, r2
20000120:	7108      	strb	r0, [r1, #4]
20000122:	58d3      	ldr	r3, [r2, r3]
20000124:	2100      	movs	r1, #0
20000126:	0038      	movs	r0, r7
20000128:	4798      	blx	r3
2000012a:	06a4      	lsls	r4, r4, #26
2000012c:	d508      	bpl.n	20000140 <i2c_slave_irq_handler+0x80>
2000012e:	2101      	movs	r1, #1
20000130:	6d2b      	ldr	r3, [r5, #80]	@ 0x50
20000132:	4b0a      	ldr	r3, [pc, #40]	@ (2000015c <i2c_slave_irq_handler+0x9c>)
20000134:	00f6      	lsls	r6, r6, #3
20000136:	199a      	adds	r2, r3, r6
20000138:	0038      	movs	r0, r7
2000013a:	58f3      	ldr	r3, [r6, r3]
2000013c:	7111      	strb	r1, [r2, #4]
2000013e:	4798      	blx	r3
20000140:	bc80      	pop	{r7}
20000142:	46b8      	mov	r8, r7
20000144:	bdf0      	pop	{r4, r5, r6, r7, pc}
20000146:	4f06      	ldr	r7, [pc, #24]	@ (20000160 <i2c_slave_irq_handler+0xa0>)
20000148:	e7c4      	b.n	200000d4 <i2c_slave_irq_handler+0x14>
2000014a:	2a00      	cmp	r2, #0
2000014c:	d1d1      	bne.n	200000f2 <i2c_slave_irq_handler+0x32>
2000014e:	2b00      	cmp	r3, #0
20000150:	d0e0      	beq.n	20000114 <i2c_slave_irq_handler+0x54>
20000152:	6e2b      	ldr	r3, [r5, #96]	@ 0x60
20000154:	e7d0      	b.n	200000f8 <i2c_slave_irq_handler+0x38>
20000156:	46c0      	nop			@ (mov r8, r8)
20000158:	20000240 	.word	0x20000240
2000015c:	200006bc 	.word	0x200006bc
20000160:	20000248 	.word	0x20000248

20000164 <mutex_try_enter_block_until>:
20000164:	b5f0      	push	{r4, r5, r6, r7, lr}
20000166:	46c6      	mov	lr, r8
20000168:	0015      	movs	r5, r2
2000016a:	b500      	push	{lr}
2000016c:	0004      	movs	r4, r0
2000016e:	001e      	movs	r6, r3
20000170:	6802      	ldr	r2, [r0, #0]
20000172:	f3ef 8110 	mrs	r1, PRIMASK
20000176:	b672      	cpsid	i
20000178:	6813      	ldr	r3, [r2, #0]
2000017a:	2b00      	cmp	r3, #0
2000017c:	d0fc      	beq.n	20000178 <mutex_try_enter_block_until+0x14>
2000017e:	f3bf 8f5f 	dmb	sy
20000182:	2304      	movs	r3, #4
20000184:	56e3      	ldrsb	r3, [r4, r3]
20000186:	2b00      	cmp	r3, #0
20000188:	db2d      	blt.n	200001e6 <mutex_try_enter_block_until+0x82>
2000018a:	6822      	ldr	r2, [r4, #0]
2000018c:	f3bf 8f5f 	dmb	sy
20000190:	2000      	movs	r0, #0
20000192:	6010      	str	r0, [r2, #0]
20000194:	f381 8810 	msr	PRIMASK, r1
20000198:	22d0      	movs	r2, #208	@ 0xd0
2000019a:	0612      	lsls	r2, r2, #24
2000019c:	7812      	ldrb	r2, [r2, #0]
2000019e:	b252      	sxtb	r2, r2
200001a0:	4690      	mov	r8, r2
200001a2:	429a      	cmp	r2, r3
200001a4:	d103      	bne.n	200001ae <mutex_try_enter_block_until+0x4a>
200001a6:	2000      	movs	r0, #0
200001a8:	bc80      	pop	{r7}
200001aa:	46b8      	mov	r8, r7
200001ac:	bdf0      	pop	{r4, r5, r6, r7, pc}
200001ae:	2700      	movs	r7, #0
200001b0:	e00b      	b.n	200001ca <mutex_try_enter_block_until+0x66>
200001b2:	6823      	ldr	r3, [r4, #0]
200001b4:	f3bf 8f5f 	dmb	sy
200001b8:	601f      	str	r7, [r3, #0]
200001ba:	f381 8810 	msr	PRIMASK, r1
200001be:	0028      	movs	r0, r5
200001c0:	0031      	movs	r1, r6
200001c2:	f000 f835 	bl	20000230 <__best_effort_wfe_or_timeout_veneer>
200001c6:	2800      	cmp	r0, #0
200001c8:	d1ed      	bne.n	200001a6 <mutex_try_enter_block_until+0x42>
200001ca:	6822      	ldr	r2, [r4, #0]
200001cc:	f3ef 8110 	mrs	r1, PRIMASK
200001d0:	b672      	cpsid	i
200001d2:	6813      	ldr	r3, [r2, #0]
200001d4:	2b00      	cmp	r3, #0
200001d6:	d0fc      	beq.n	200001d2 <mutex_try_enter_block_until+0x6e>
200001d8:	f3bf 8f5f 	dmb	sy
200001dc:	7923      	ldrb	r3, [r4, #4]
200001de:	2b7f      	cmp	r3, #127	@ 0x7f
200001e0:	d9e7      	bls.n	200001b2 <mutex_try_enter_block_until+0x4e>
200001e2:	4643      	mov	r3, r8
200001e4:	e002      	b.n	200001ec <mutex_try_enter_block_until+0x88>
200001e6:	23d0      	movs	r3, #208	@ 0xd0
200001e8:	061b      	lsls	r3, r3, #24
200001ea:	681b      	ldr	r3, [r3, #0]
200001ec:	7123      	strb	r3, [r4, #4]
200001ee:	6823      	ldr	r3, [r4, #0]
200001f0:	f3bf 8f5f 	dmb	sy
200001f4:	2200      	movs	r2, #0
200001f6:	601a      	str	r2, [r3, #0]
200001f8:	f381 8810 	msr	PRIMASK, r1
200001fc:	2001      	movs	r0, #1
200001fe:	e7d3      	b.n	200001a8 <mutex_try_enter_block_until+0x44>

20000200 <mutex_exit>:
20000200:	6802      	ldr	r2, [r0, #0]
20000202:	f3ef 8110 	mrs	r1, PRIMASK
20000206:	b672      	cpsid	i
20000208:	6813      	ldr	r3, [r2, #0]
2000020a:	2b00      	cmp	r3, #0
2000020c:	d0fc      	beq.n	20000208 <mutex_exit+0x8>
2000020e:	f3bf 8f5f 	dmb	sy
20000212:	23ff      	movs	r3, #255	@ 0xff
20000214:	7103      	strb	r3, [r0, #4]
20000216:	6803      	ldr	r3, [r0, #0]
20000218:	f3bf 8f5f 	dmb	sy
2000021c:	2200      	movs	r2, #0
2000021e:	601a      	str	r2, [r3, #0]
20000220:	f381 8810 	msr	PRIMASK, r1
20000224:	bf40      	sev
20000226:	4770      	bx	lr

20000228 <__aeabi_idiv0>:
20000228:	4770      	bx	lr
2000022a:	46c0      	nop			@ (mov r8, r8)
2000022c:	0000      	movs	r0, r0
	...

20000230 <__best_effort_wfe_or_timeout_veneer>:
20000230:	b401      	push	{r0}
20000232:	4802      	ldr	r0, [pc, #8]	@ (2000023c <__best_effort_wfe_or_timeout_veneer+0xc>)
20000234:	4684      	mov	ip, r0
20000236:	bc01      	pop	{r0}
20000238:	4760      	bx	ip
2000023a:	bf00      	nop
2000023c:	10000a45 	.word	0x10000a45

20000240 <i2c1_inst>:
20000240:	40048000 00000000                       ...@....

20000248 <i2c0_inst>:
20000248:	40044000 00000000                       .@.@....

20000250 <striped_spin_lock_num>:
20000250:	00000010                                ....

20000254 <default_alarm_pool>:
	...
20000268:	20000300                                ... 

2000026c <irq_handler_chain_slots>:
2000026c:	00000000 	.word	0x00000000
20000270:	00010000 	.word	0x00010000
	...
2000027c:	00020000 	.word	0x00020000
	...
20000288:	00030000 	.word	0x00030000
	...
20000294:	00ff0000 	.word	0x00ff0000
20000298:	00000000 	.word	0x00000000

2000029c <irq_handler_chain_first_slot>:
2000029c:	b501      	push	{r0, lr}
2000029e:	6848      	ldr	r0, [r1, #4]
200002a0:	3101      	adds	r1, #1
200002a2:	468e      	mov	lr, r1
200002a4:	4700      	bx	r0

200002a6 <irq_handler_chain_remove_tail>:
200002a6:	4670      	mov	r0, lr
200002a8:	3809      	subs	r0, #9
200002aa:	4901      	ldr	r1, [pc, #4]	@ (200002b0 <irq_handler_chain_remove_tail+0xa>)
200002ac:	4788      	blx	r1
200002ae:	bd01      	pop	{r0, pc}
200002b0:	10000e89 	.word	0x10000e89
	...

200002c0 <aeabi_bits_funcs>:
200002c0:	00003350 	.word	0x00003350
200002c4:	0000334c 	.word	0x0000334c
200002c8:	00003354 	.word	0x00003354
200002cc:	00003352 	.word	0x00003352

200002d0 <aeabi_bits_funcs_end>:
200002d0:	0000534d 	.word	0x0000534d
200002d4:	0000434d 	.word	0x0000434d
200002d8:	00003453 	.word	0x00003453
200002dc:	00003443 	.word	0x00003443

200002e0 <stdio_uart>:
200002e0:	10001b95 10001c99 10001be1 10001ca9     ................
200002f0:	00000000 00000100                       ........

200002f8 <print_mutex>:
	...
